ARM GAS  C:\Users\Acer\AppData\Local\Temp\cc4nziWa.s 			page 1


   1              		.cpu cortex-m4
   2              		.eabi_attribute 27, 1
   3              		.eabi_attribute 28, 1
   4              		.eabi_attribute 20, 1
   5              		.eabi_attribute 21, 1
   6              		.eabi_attribute 23, 3
   7              		.eabi_attribute 24, 1
   8              		.eabi_attribute 25, 1
   9              		.eabi_attribute 26, 1
  10              		.eabi_attribute 30, 2
  11              		.eabi_attribute 34, 1
  12              		.eabi_attribute 18, 4
  13              		.file	"audio_processing.c"
  14              		.text
  15              	.Ltext0:
  16              		.cfi_sections	.debug_frame
  17              		.section	.text.sound_remote,"ax",%progbits
  18              		.align	1
  19              		.p2align 4,,15
  20              		.global	sound_remote
  21              		.syntax unified
  22              		.thumb
  23              		.thumb_func
  24              		.fpu fpv4-sp-d16
  25              		.type	sound_remote, %function
  26              	sound_remote:
  27              	.LFB290:
  28              		.file 1 "audio_processing.c"
  29              		.loc 1 47 0
  30              		.cfi_startproc
  31              		@ args = 0, pretend = 0, frame = 8
  32              		@ frame_needed = 0, uses_anonymous_args = 0
  33              	.LVL0:
  34 0000 70B5     		push	{r4, r5, r6, lr}
  35              		.cfi_def_cfa_offset 16
  36              		.cfi_offset 4, -16
  37              		.cfi_offset 5, -12
  38              		.cfi_offset 6, -8
  39              		.cfi_offset 14, -4
  40 0002 2DED028B 		vpush.64	{d8}
  41              		.cfi_def_cfa_offset 24
  42              		.cfi_offset 80, -24
  43              		.cfi_offset 81, -20
  44 0006 334C     		ldr	r4, .L23
  45              		.loc 1 48 0
  46 0008 9FED337A 		vldr.32	s14, .L23+4
  47              		.loc 1 47 0
  48 000c 2368     		ldr	r3, [r4]
  49 000e 82B0     		sub	sp, sp, #8
  50              		.cfi_def_cfa_offset 32
  51 0010 1430     		adds	r0, r0, #20
  52              	.LVL1:
  53              		.loc 1 47 0
  54 0012 0193     		str	r3, [sp, #4]
  55              	.LVL2:
  56              		.loc 1 49 0
  57 0014 4FF0FF32 		mov	r2, #-1
ARM GAS  C:\Users\Acer\AppData\Local\Temp\cc4nziWa.s 			page 2


  58              		.loc 1 47 0
  59 0018 0523     		movs	r3, #5
  60              	.LVL3:
  61              	.L4:
  62              	.LBB62:
  63              		.loc 1 52 0
  64 001a F0EC017A 		vldmia.32	r0!, {s15}
  65 001e F4EEC77A 		vcmpe.f32	s15, s14
  66 0022 F1EE10FA 		vmrs	APSR_nzcv, FPSCR
  67              	.LVL4:
  68              		.loc 1 54 0
  69 0026 C8BF     		it	gt
  70 0028 1AB2     		sxthgt	r2, r3
  71              	.LVL5:
  72 002a 03F10103 		add	r3, r3, #1
  73              	.LVL6:
  74              		.loc 1 53 0
  75 002e C8BF     		it	gt
  76 0030 B0EE677A 		vmovgt.f32	s14, s15
  77              	.LVL7:
  78              		.loc 1 51 0
  79 0034 A12B     		cmp	r3, #161
  80 0036 F0D1     		bne	.L4
  81              	.LBE62:
  82              		.loc 1 59 0
  83 0038 07EE902A 		vmov	s15, r2	@ int
  84 003c B8EEE78A 		vcvt.f32.s32	s16, s15
  85 0040 DFED267A 		vldr.32	s15, .L23+8
  86 0044 B4EEE78A 		vcmpe.f32	s16, s15
  87 0048 F1EE10FA 		vmrs	APSR_nzcv, FPSCR
  88 004c 06DB     		blt	.L5
  89              		.loc 1 59 0 is_stmt 0 discriminator 1
  90 004e DFED247A 		vldr.32	s15, .L23+12
  91 0052 B4EEE78A 		vcmpe.f32	s16, s15
  92 0056 F1EE10FA 		vmrs	APSR_nzcv, FPSCR
  93 005a 18D9     		bls	.L21
  94              	.LVL8:
  95              	.L5:
  96              		.loc 1 64 0 is_stmt 1
  97 005c F1EE067A 		vmov.f32	s15, #5.5e+0
  98 0060 B4EEE78A 		vcmpe.f32	s16, s15
  99 0064 F1EE10FA 		vmrs	APSR_nzcv, FPSCR
 100 0068 09DB     		blt	.L1
 101              		.loc 1 64 0 is_stmt 0 discriminator 1
 102 006a F1EE0A7A 		vmov.f32	s15, #6.5e+0
 103 006e B4EEE78A 		vcmpe.f32	s16, s15
 104 0072 F1EE10FA 		vmrs	APSR_nzcv, FPSCR
 105 0076 02D8     		bhi	.L1
 106              		.loc 1 65 0 is_stmt 1
 107 0078 1A4B     		ldr	r3, .L23+16
 108 007a 0122     		movs	r2, #1
 109 007c 1A70     		strb	r2, [r3]
 110              	.L1:
 111              		.loc 1 67 0
 112 007e 019A     		ldr	r2, [sp, #4]
 113 0080 2368     		ldr	r3, [r4]
 114 0082 9A42     		cmp	r2, r3
ARM GAS  C:\Users\Acer\AppData\Local\Temp\cc4nziWa.s 			page 3


 115 0084 24D1     		bne	.L22
 116 0086 02B0     		add	sp, sp, #8
 117              		.cfi_remember_state
 118              		.cfi_def_cfa_offset 24
 119              		@ sp needed
 120 0088 BDEC028B 		vldm	sp!, {d8}
 121              		.cfi_restore 80
 122              		.cfi_restore 81
 123              		.cfi_def_cfa_offset 16
 124 008c 70BD     		pop	{r4, r5, r6, pc}
 125              	.LVL9:
 126              	.L21:
 127              		.cfi_restore_state
 128              		.loc 1 60 0
 129 008e 164B     		ldr	r3, .L23+20
 130 0090 0122     		movs	r2, #1
 131 0092 1A70     		strb	r2, [r3]
 132              	.LVL10:
 133              	.LBB63:
 134              	.LBB64:
 135              	.LBB65:
 136              	.LBB66:
 137              	.LBB67:
 138              	.LBB68:
 139              	.LBB69:
 140              		.file 2 "../../lib/e-puck2_main-processor/ChibiOS//os/ext/CMSIS/include/core_cmFunc.h"
 141              		.loc 2 546 0
 142 0094 2023     		movs	r3, #32
 143              		.syntax unified
 144              	@ 546 "../../lib/e-puck2_main-processor/ChibiOS//os/ext/CMSIS/include/core_cmFunc.h" 1
 145 0096 83F31188 		MSR basepri, r3
 146              	@ 0 "" 2
 147              	.LVL11:
 148              		.thumb
 149              		.syntax unified
 150              	.LBE69:
 151              	.LBE68:
 152              	.LBE67:
 153              	.LBE66:
 154              	.LBE65:
 155              	.LBB71:
 156              	.LBB72:
 157              		.file 3 "../../lib/e-puck2_main-processor/ChibiOS//os/rt/include/chvt.h"
 158              		.loc 3 231 0
 159 009a 144D     		ldr	r5, .L23+24
 160              	.LBE72:
 161              	.LBE71:
 162              	.LBB74:
 163              	.LBB70:
 164              		.file 4 "../../lib/e-puck2_main-processor/ChibiOS//os/rt/include/chsys.h"
 165              		.loc 4 349 0
 166 009c FFF7FEFF 		bl	_stats_start_measure_crit_thd
 167              	.LVL12:
 168              		.loc 4 350 0
 169 00a0 FFF7FEFF 		bl	_dbg_check_lock
 170              	.LVL13:
 171              	.LBE70:
ARM GAS  C:\Users\Acer\AppData\Local\Temp\cc4nziWa.s 			page 4


 172              	.LBE74:
 173              	.LBB75:
 174              	.LBB73:
 175              		.loc 3 231 0
 176 00a4 AE6A     		ldr	r6, [r5, #40]
 177              	.LBE73:
 178              	.LBE75:
 179              	.LBB76:
 180              	.LBB77:
 181              		.loc 4 360 0
 182 00a6 FFF7FEFF 		bl	_dbg_check_unlock
 183              	.LVL14:
 184              		.loc 4 361 0
 185 00aa FFF7FEFF 		bl	_stats_stop_measure_crit_thd
 186              	.LVL15:
 187              		.loc 4 367 0
 188 00ae 2B68     		ldr	r3, [r5]
 189 00b0 AB42     		cmp	r3, r5
 190 00b2 07D0     		beq	.L8
 191 00b4 AA69     		ldr	r2, [r5, #24]
 192 00b6 9B68     		ldr	r3, [r3, #8]
 193 00b8 9268     		ldr	r2, [r2, #8]
 194 00ba 9A42     		cmp	r2, r3
 195 00bc 02D2     		bcs	.L8
 196 00be 0C48     		ldr	r0, .L23+28
 197 00c0 FFF7FEFF 		bl	chSysHalt
 198              	.LVL16:
 199              	.L8:
 200              	.LBB78:
 201              	.LBB79:
 202              	.LBB80:
 203              		.loc 2 546 0
 204 00c4 0023     		movs	r3, #0
 205              		.syntax unified
 206              	@ 546 "../../lib/e-puck2_main-processor/ChibiOS//os/ext/CMSIS/include/core_cmFunc.h" 1
 207 00c6 83F31188 		MSR basepri, r3
 208              	@ 0 "" 2
 209              	.LVL17:
 210              		.thumb
 211              		.syntax unified
 212              	.LBE80:
 213              	.LBE79:
 214              	.LBE78:
 215              	.LBE77:
 216              	.LBE76:
 217              	.LBE64:
 218              	.LBE63:
 219              		.loc 1 61 0
 220 00ca 0A4B     		ldr	r3, .L23+32
 221 00cc 1E60     		str	r6, [r3]
 222 00ce C5E7     		b	.L5
 223              	.L22:
 224              		.loc 1 67 0
 225 00d0 FFF7FEFF 		bl	__stack_chk_fail
 226              	.LVL18:
 227              	.L24:
 228              		.align	2
ARM GAS  C:\Users\Acer\AppData\Local\Temp\cc4nziWa.s 			page 5


 229              	.L23:
 230 00d4 00000000 		.word	__stack_chk_guard
 231 00d8 00401C46 		.word	1176256512
 232 00dc 33330F43 		.word	1125069619
 233 00e0 52B81543 		.word	1125496914
 234 00e4 00000000 		.word	.LANCHOR3
 235 00e8 00000000 		.word	.LANCHOR0
 236 00ec 00000000 		.word	ch
 237 00f0 00000000 		.word	.LANCHOR1
 238 00f4 00000000 		.word	.LANCHOR2
 239              		.cfi_endproc
 240              	.LFE290:
 241              		.size	sound_remote, .-sound_remote
 242              		.section	.text.processAudioData,"ax",%progbits
 243              		.align	1
 244              		.p2align 4,,15
 245              		.global	processAudioData
 246              		.syntax unified
 247              		.thumb
 248              		.thumb_func
 249              		.fpu fpv4-sp-d16
 250              		.type	processAudioData, %function
 251              	processAudioData:
 252              	.LFB291:
 253              		.loc 1 78 0
 254              		.cfi_startproc
 255              		@ args = 0, pretend = 0, frame = 8
 256              		@ frame_needed = 0, uses_anonymous_args = 0
 257              	.LVL19:
 258 0000 2DE9F04F 		push	{r4, r5, r6, r7, r8, r9, r10, fp, lr}
 259              		.cfi_def_cfa_offset 36
 260              		.cfi_offset 4, -36
 261              		.cfi_offset 5, -32
 262              		.cfi_offset 6, -28
 263              		.cfi_offset 7, -24
 264              		.cfi_offset 8, -20
 265              		.cfi_offset 9, -16
 266              		.cfi_offset 10, -12
 267              		.cfi_offset 11, -8
 268              		.cfi_offset 14, -4
 269 0004 684E     		ldr	r6, .L42
 270 0006 694F     		ldr	r7, .L42+4
 271 0008 3368     		ldr	r3, [r6]
 272 000a 3A88     		ldrh	r2, [r7]
 273 000c 83B0     		sub	sp, sp, #12
 274              		.cfi_def_cfa_offset 48
 275              		.loc 1 78 0
 276 000e 0193     		str	r3, [sp, #4]
 277              	.LVL20:
 278              	.LBB96:
 279              		.loc 1 92 0
 280 0010 0029     		cmp	r1, #0
 281 0012 00F09380 		beq	.L26
 282 0016 DFF89C91 		ldr	r9, .L42+12
 283 001a DFF8A081 		ldr	r8, .L42+20
 284 001e DFF8A4E1 		ldr	lr, .L42+28
 285 0022 DFF89CC1 		ldr	ip, .L42+24
ARM GAS  C:\Users\Acer\AppData\Local\Temp\cc4nziWa.s 			page 6


 286              		.loc 1 101 0
 287 0026 DFED627A 		vldr.32	s15, .L42+8
 288              		.loc 1 92 0
 289 002a 0025     		movs	r5, #0
 290 002c 04E0     		b	.L29
 291              	.LVL21:
 292              	.L27:
 293              		.loc 1 92 0 is_stmt 0 discriminator 2
 294 002e 0435     		adds	r5, r5, #4
 295              	.LVL22:
 296 0030 ADB2     		uxth	r5, r5
 297              	.LVL23:
 298 0032 A942     		cmp	r1, r5
 299 0034 40F2B580 		bls	.L40
 300              	.LVL24:
 301              	.L29:
 302              		.loc 1 94 0 is_stmt 1
 303 0038 30F91530 		ldrsh	r3, [r0, r5, lsl #1]
 304 003c 07EE103A 		vmov	s14, r3	@ int
 305 0040 9400     		lsls	r4, r2, #2
 306 0042 B8EEC77A 		vcvt.f32.s32	s14, s14
 307 0046 09EB040A 		add	r10, r9, r4
 308              		.loc 1 95 0
 309 004a 00EB4503 		add	r3, r0, r5, lsl #1
 310              		.loc 1 94 0
 311 004e 8AED007A 		vstr.32	s14, [r10]
 312              		.loc 1 95 0
 313 0052 B3F902A0 		ldrsh	r10, [r3, #2]
 314 0056 07EE10AA 		vmov	s14, r10	@ int
 315 005a B8EEC77A 		vcvt.f32.s32	s14, s14
 316 005e 08EB040A 		add	r10, r8, r4
 317 0062 8AED007A 		vstr.32	s14, [r10]
 318              		.loc 1 96 0
 319 0066 B3F904A0 		ldrsh	r10, [r3, #4]
 320 006a 07EE10AA 		vmov	s14, r10	@ int
 321 006e B8EEC77A 		vcvt.f32.s32	s14, s14
 322 0072 0EEB040A 		add	r10, lr, r4
 323 0076 8AED007A 		vstr.32	s14, [r10]
 324              		.loc 1 97 0
 325 007a B3F90630 		ldrsh	r3, [r3, #6]
 326 007e 07EE103A 		vmov	s14, r3	@ int
 327              		.loc 1 101 0
 328 0082 531C     		adds	r3, r2, #1
 329 0084 9BB2     		uxth	r3, r3
 330              		.loc 1 97 0
 331 0086 B8EEC77A 		vcvt.f32.s32	s14, s14
 332              		.loc 1 106 0
 333 008a 0232     		adds	r2, r2, #2
 334              		.loc 1 101 0
 335 008c 9B00     		lsls	r3, r3, #2
 336              		.loc 1 97 0
 337 008e 6444     		add	r4, r4, ip
 338              		.loc 1 106 0
 339 0090 92B2     		uxth	r2, r2
 340              		.loc 1 97 0
 341 0092 84ED007A 		vstr.32	s14, [r4]
 342              		.loc 1 101 0
ARM GAS  C:\Users\Acer\AppData\Local\Temp\cc4nziWa.s 			page 7


 343 0096 09EB030B 		add	fp, r9, r3
 344              		.loc 1 102 0
 345 009a 08EB030A 		add	r10, r8, r3
 346              		.loc 1 103 0
 347 009e 0EEB0304 		add	r4, lr, r3
 348              		.loc 1 109 0
 349 00a2 B2F5006F 		cmp	r2, #2048
 350              		.loc 1 104 0
 351 00a6 6344     		add	r3, r3, ip
 352              		.loc 1 101 0
 353 00a8 CBED007A 		vstr.32	s15, [fp]
 354              		.loc 1 102 0
 355 00ac CAED007A 		vstr.32	s15, [r10]
 356              		.loc 1 103 0
 357 00b0 C4ED007A 		vstr.32	s15, [r4]
 358              		.loc 1 104 0
 359 00b4 C3ED007A 		vstr.32	s15, [r3]
 360              		.loc 1 109 0
 361 00b8 B9D3     		bcc	.L27
 362 00ba 3A80     		strh	r2, [r7]	@ movhi
 363              	.LVL25:
 364              	.L28:
 365              	.LBE96:
 366              		.loc 1 121 0
 367 00bc 3D49     		ldr	r1, .L42+12
 368              	.LVL26:
 369              		.loc 1 140 0
 370 00be 3E4C     		ldr	r4, .L42+16
 371              		.loc 1 121 0
 372 00c0 4FF48060 		mov	r0, #1024
 373              	.LVL27:
 374 00c4 FFF7FEFF 		bl	doFFT_optimized
 375              	.LVL28:
 376              		.loc 1 122 0
 377 00c8 3C49     		ldr	r1, .L42+20
 378 00ca 4FF48060 		mov	r0, #1024
 379 00ce FFF7FEFF 		bl	doFFT_optimized
 380              	.LVL29:
 381              		.loc 1 123 0
 382 00d2 3B49     		ldr	r1, .L42+24
 383 00d4 4FF48060 		mov	r0, #1024
 384 00d8 FFF7FEFF 		bl	doFFT_optimized
 385              	.LVL30:
 386              		.loc 1 124 0
 387 00dc 3949     		ldr	r1, .L42+28
 388 00de 4FF48060 		mov	r0, #1024
 389 00e2 FFF7FEFF 		bl	doFFT_optimized
 390              	.LVL31:
 391              		.loc 1 133 0
 392 00e6 4FF48062 		mov	r2, #1024
 393 00ea 3749     		ldr	r1, .L42+32
 394 00ec 3148     		ldr	r0, .L42+12
 395 00ee FFF7FEFF 		bl	arm_cmplx_mag_f32
 396              	.LVL32:
 397              		.loc 1 134 0
 398 00f2 4FF48062 		mov	r2, #1024
 399 00f6 3549     		ldr	r1, .L42+36
ARM GAS  C:\Users\Acer\AppData\Local\Temp\cc4nziWa.s 			page 8


 400 00f8 3048     		ldr	r0, .L42+20
 401 00fa FFF7FEFF 		bl	arm_cmplx_mag_f32
 402              	.LVL33:
 403              		.loc 1 135 0
 404 00fe 4FF48062 		mov	r2, #1024
 405 0102 3349     		ldr	r1, .L42+40
 406 0104 2E48     		ldr	r0, .L42+24
 407 0106 FFF7FEFF 		bl	arm_cmplx_mag_f32
 408              	.LVL34:
 409              		.loc 1 136 0
 410 010a 4FF48062 		mov	r2, #1024
 411 010e 3149     		ldr	r1, .L42+44
 412 0110 2C48     		ldr	r0, .L42+28
 413 0112 FFF7FEFF 		bl	arm_cmplx_mag_f32
 414              	.LVL35:
 415              		.loc 1 140 0
 416 0116 2378     		ldrb	r3, [r4]	@ zero_extendqisi2
 417 0118 082B     		cmp	r3, #8
 418 011a 19D8     		bhi	.L31
 419 011c 0133     		adds	r3, r3, #1
 420 011e DBB2     		uxtb	r3, r3
 421              	.L32:
 422              		.loc 1 147 0
 423 0120 0199     		ldr	r1, [sp, #4]
 424 0122 3268     		ldr	r2, [r6]
 425              		.loc 1 146 0
 426 0124 2370     		strb	r3, [r4]
 427              		.loc 1 147 0
 428 0126 9142     		cmp	r1, r2
 429              		.loc 1 145 0
 430 0128 4FF00003 		mov	r3, #0
 431 012c 3B80     		strh	r3, [r7]	@ movhi
 432              		.loc 1 147 0
 433 012e 36D1     		bne	.L39
 434 0130 2648     		ldr	r0, .L42+36
 435              		.loc 1 149 0
 436 0132 03B0     		add	sp, sp, #12
 437              		.cfi_remember_state
 438              		.cfi_def_cfa_offset 36
 439              		@ sp needed
 440 0134 BDE8F04F 		pop	{r4, r5, r6, r7, r8, r9, r10, fp, lr}
 441              		.cfi_restore 14
 442              		.cfi_restore 11
 443              		.cfi_restore 10
 444              		.cfi_restore 9
 445              		.cfi_restore 8
 446              		.cfi_restore 7
 447              		.cfi_restore 6
 448              		.cfi_restore 5
 449              		.cfi_restore 4
 450              		.cfi_def_cfa_offset 0
 451              		.loc 1 147 0
 452 0138 FFF7FEBF 		b	sound_remote
 453              	.LVL36:
 454              	.L26:
 455              		.cfi_restore_state
 456              		.loc 1 114 0
ARM GAS  C:\Users\Acer\AppData\Local\Temp\cc4nziWa.s 			page 9


 457 013c B2F5006F 		cmp	r2, #2048
 458 0140 BCD2     		bcs	.L28
 459              	.LVL37:
 460              	.L25:
 461              		.loc 1 149 0
 462 0142 019A     		ldr	r2, [sp, #4]
 463 0144 3368     		ldr	r3, [r6]
 464 0146 9A42     		cmp	r2, r3
 465 0148 29D1     		bne	.L39
 466 014a 03B0     		add	sp, sp, #12
 467              		.cfi_remember_state
 468              		.cfi_def_cfa_offset 36
 469              		@ sp needed
 470 014c BDE8F08F 		pop	{r4, r5, r6, r7, r8, r9, r10, fp, pc}
 471              	.LVL38:
 472              	.L31:
 473              		.cfi_restore_state
 474              	.LBB97:
 475              	.LBB98:
 476              	.LBB99:
 477              	.LBB100:
 478              	.LBB101:
 479              	.LBB102:
 480              	.LBB103:
 481              		.loc 2 546 0
 482 0150 2023     		movs	r3, #32
 483              		.syntax unified
 484              	@ 546 "../../lib/e-puck2_main-processor/ChibiOS//os/ext/CMSIS/include/core_cmFunc.h" 1
 485 0152 83F31188 		MSR basepri, r3
 486              	@ 0 "" 2
 487              	.LVL39:
 488              		.thumb
 489              		.syntax unified
 490              	.LBE103:
 491              	.LBE102:
 492              	.LBE101:
 493              		.loc 4 349 0
 494 0156 FFF7FEFF 		bl	_stats_start_measure_crit_thd
 495              	.LVL40:
 496              		.loc 4 350 0
 497 015a FFF7FEFF 		bl	_dbg_check_lock
 498              	.LVL41:
 499              	.LBE100:
 500              	.LBE99:
 501              	.LBB104:
 502              	.LBB105:
 503              		.file 5 "../../lib/e-puck2_main-processor/ChibiOS//os/rt/include/chbsem.h"
 504              		.loc 5 268 0
 505 015e FFF7FEFF 		bl	chDbgCheckClassI
 506              	.LVL42:
 507              		.loc 5 270 0
 508 0162 1D48     		ldr	r0, .L42+48
 509 0164 8368     		ldr	r3, [r0, #8]
 510 0166 002B     		cmp	r3, #0
 511 0168 16DD     		ble	.L41
 512              	.L33:
 513              	.LVL43:
ARM GAS  C:\Users\Acer\AppData\Local\Temp\cc4nziWa.s 			page 10


 514              	.LBE105:
 515              	.LBE104:
 516              		.loc 5 286 0
 517 016a FFF7FEFF 		bl	chSchRescheduleS
 518              	.LVL44:
 519              	.LBB107:
 520              	.LBB108:
 521              		.loc 4 360 0
 522 016e FFF7FEFF 		bl	_dbg_check_unlock
 523              	.LVL45:
 524              		.loc 4 361 0
 525 0172 FFF7FEFF 		bl	_stats_stop_measure_crit_thd
 526              	.LVL46:
 527              		.loc 4 367 0
 528 0176 194B     		ldr	r3, .L42+52
 529 0178 1A68     		ldr	r2, [r3]
 530 017a 9A42     		cmp	r2, r3
 531 017c 07D0     		beq	.L34
 532 017e 9969     		ldr	r1, [r3, #24]
 533 0180 9368     		ldr	r3, [r2, #8]
 534 0182 8A68     		ldr	r2, [r1, #8]
 535 0184 9A42     		cmp	r2, r3
 536 0186 02D2     		bcs	.L34
 537 0188 1548     		ldr	r0, .L42+56
 538 018a FFF7FEFF 		bl	chSysHalt
 539              	.LVL47:
 540              	.L34:
 541              	.LBB109:
 542              	.LBB110:
 543              	.LBB111:
 544              		.loc 2 546 0
 545 018e 0023     		movs	r3, #0
 546              		.syntax unified
 547              	@ 546 "../../lib/e-puck2_main-processor/ChibiOS//os/ext/CMSIS/include/core_cmFunc.h" 1
 548 0190 83F31188 		MSR basepri, r3
 549              	@ 0 "" 2
 550              	.LVL48:
 551              		.thumb
 552              		.syntax unified
 553 0194 0123     		movs	r3, #1
 554 0196 C3E7     		b	.L32
 555              	.LVL49:
 556              	.L41:
 557              	.LBE111:
 558              	.LBE110:
 559              	.LBE109:
 560              	.LBE108:
 561              	.LBE107:
 562              	.LBB112:
 563              	.LBB106:
 564              		.loc 5 271 0
 565 0198 FFF7FEFF 		bl	chSemSignalI
 566              	.LVL50:
 567 019c E5E7     		b	.L33
 568              	.LVL51:
 569              	.L39:
 570              	.LBE106:
ARM GAS  C:\Users\Acer\AppData\Local\Temp\cc4nziWa.s 			page 11


 571              	.LBE112:
 572              	.LBE98:
 573              	.LBE97:
 574              		.loc 1 149 0
 575 019e FFF7FEFF 		bl	__stack_chk_fail
 576              	.LVL52:
 577              	.L40:
 578 01a2 3A80     		strh	r2, [r7]	@ movhi
 579 01a4 CDE7     		b	.L25
 580              	.L43:
 581 01a6 00BF     		.align	2
 582              	.L42:
 583 01a8 00000000 		.word	__stack_chk_guard
 584 01ac 00000000 		.word	.LANCHOR4
 585 01b0 00000000 		.word	0
 586 01b4 00000000 		.word	micRight_cmplx_input
 587 01b8 00000000 		.word	.LANCHOR5
 588 01bc 00000000 		.word	micLeft_cmplx_input
 589 01c0 00000000 		.word	micFront_cmplx_input
 590 01c4 00000000 		.word	micBack_cmplx_input
 591 01c8 00000000 		.word	micRight_output
 592 01cc 00000000 		.word	micLeft_output
 593 01d0 00000000 		.word	micFront_output
 594 01d4 00000000 		.word	micBack_output
 595 01d8 00000000 		.word	.LANCHOR6
 596 01dc 00000000 		.word	ch
 597 01e0 00000000 		.word	.LANCHOR1
 598              		.cfi_endproc
 599              	.LFE291:
 600              		.size	processAudioData, .-processAudioData
 601              		.section	.text.wait_send_to_computer,"ax",%progbits
 602              		.align	1
 603              		.p2align 4,,15
 604              		.global	wait_send_to_computer
 605              		.syntax unified
 606              		.thumb
 607              		.thumb_func
 608              		.fpu fpv4-sp-d16
 609              		.type	wait_send_to_computer, %function
 610              	wait_send_to_computer:
 611              	.LFB292:
 612              		.loc 1 151 0
 613              		.cfi_startproc
 614              		@ args = 0, pretend = 0, frame = 8
 615              		@ frame_needed = 0, uses_anonymous_args = 0
 616 0000 00B5     		push	{lr}
 617              		.cfi_def_cfa_offset 4
 618              		.cfi_offset 14, -4
 619 0002 084B     		ldr	r3, .L49
 620 0004 83B0     		sub	sp, sp, #12
 621              		.cfi_def_cfa_offset 16
 622              		.loc 1 151 0
 623 0006 1A68     		ldr	r2, [r3]
 624 0008 0192     		str	r2, [sp, #4]
 625              	.LVL53:
 626              	.LBB113:
 627              	.LBB114:
ARM GAS  C:\Users\Acer\AppData\Local\Temp\cc4nziWa.s 			page 12


 628              		.loc 5 143 0
 629 000a 019A     		ldr	r2, [sp, #4]
 630 000c 1B68     		ldr	r3, [r3]
 631 000e 9A42     		cmp	r2, r3
 632 0010 05D1     		bne	.L48
 633 0012 0548     		ldr	r0, .L49+4
 634              	.LBE114:
 635              	.LBE113:
 636              		.loc 1 153 0
 637 0014 03B0     		add	sp, sp, #12
 638              		.cfi_remember_state
 639              		.cfi_def_cfa_offset 4
 640              		@ sp needed
 641 0016 5DF804EB 		ldr	lr, [sp], #4
 642              		.cfi_restore 14
 643              		.cfi_def_cfa_offset 0
 644              	.LBB116:
 645              	.LBB115:
 646              		.loc 5 143 0
 647 001a FFF7FEBF 		b	chSemWait
 648              	.LVL54:
 649              	.L48:
 650              		.cfi_restore_state
 651 001e FFF7FEFF 		bl	__stack_chk_fail
 652              	.LVL55:
 653              	.L50:
 654 0022 00BF     		.align	2
 655              	.L49:
 656 0024 00000000 		.word	__stack_chk_guard
 657 0028 00000000 		.word	.LANCHOR6
 658              	.LBE115:
 659              	.LBE116:
 660              		.cfi_endproc
 661              	.LFE292:
 662              		.size	wait_send_to_computer, .-wait_send_to_computer
 663              		.section	.text.get_audio_buffer_ptr,"ax",%progbits
 664              		.align	1
 665              		.p2align 4,,15
 666              		.global	get_audio_buffer_ptr
 667              		.syntax unified
 668              		.thumb
 669              		.thumb_func
 670              		.fpu fpv4-sp-d16
 671              		.type	get_audio_buffer_ptr, %function
 672              	get_audio_buffer_ptr:
 673              	.LFB293:
 674              		.loc 1 155 0
 675              		.cfi_startproc
 676              		@ args = 0, pretend = 0, frame = 8
 677              		@ frame_needed = 0, uses_anonymous_args = 0
 678              	.LVL56:
 679 0000 00B5     		push	{lr}
 680              		.cfi_def_cfa_offset 4
 681              		.cfi_offset 14, -4
 682 0002 164B     		ldr	r3, .L64
 683 0004 83B0     		sub	sp, sp, #12
 684              		.cfi_def_cfa_offset 16
ARM GAS  C:\Users\Acer\AppData\Local\Temp\cc4nziWa.s 			page 13


 685              		.loc 1 155 0
 686 0006 1A68     		ldr	r2, [r3]
 687 0008 0192     		str	r2, [sp, #4]
 688              		.loc 1 156 0
 689 000a 88B1     		cbz	r0, .L54
 690              		.loc 1 159 0
 691 000c 0128     		cmp	r0, #1
 692 000e 17D0     		beq	.L55
 693              		.loc 1 162 0
 694 0010 0228     		cmp	r0, #2
 695 0012 19D0     		beq	.L56
 696              		.loc 1 165 0
 697 0014 0328     		cmp	r0, #3
 698 0016 15D0     		beq	.L57
 699              		.loc 1 168 0
 700 0018 0428     		cmp	r0, #4
 701 001a 17D0     		beq	.L58
 702              		.loc 1 171 0
 703 001c 0528     		cmp	r0, #5
 704 001e 17D0     		beq	.L59
 705              		.loc 1 174 0
 706 0020 0628     		cmp	r0, #6
 707 0022 17D0     		beq	.L60
 708              		.loc 1 181 0
 709 0024 0E4A     		ldr	r2, .L64+4
 710              		.loc 1 177 0
 711 0026 0728     		cmp	r0, #7
 712              		.loc 1 181 0
 713 0028 0CBF     		ite	eq
 714 002a 1046     		moveq	r0, r2
 715              	.LVL57:
 716 002c 0020     		movne	r0, #0
 717 002e 00E0     		b	.L51
 718              	.LVL58:
 719              	.L54:
 720              		.loc 1 157 0
 721 0030 0C48     		ldr	r0, .L64+8
 722              	.LVL59:
 723              	.L51:
 724              		.loc 1 183 0
 725 0032 019A     		ldr	r2, [sp, #4]
 726 0034 1B68     		ldr	r3, [r3]
 727 0036 9A42     		cmp	r2, r3
 728 0038 0ED1     		bne	.L63
 729 003a 03B0     		add	sp, sp, #12
 730              		.cfi_remember_state
 731              		.cfi_def_cfa_offset 4
 732              		@ sp needed
 733 003c 5DF804FB 		ldr	pc, [sp], #4
 734              	.LVL60:
 735              	.L55:
 736              		.cfi_restore_state
 737              		.loc 1 160 0
 738 0040 0948     		ldr	r0, .L64+12
 739              	.LVL61:
 740 0042 F6E7     		b	.L51
 741              	.LVL62:
ARM GAS  C:\Users\Acer\AppData\Local\Temp\cc4nziWa.s 			page 14


 742              	.L57:
 743              		.loc 1 166 0
 744 0044 0948     		ldr	r0, .L64+16
 745              	.LVL63:
 746 0046 F4E7     		b	.L51
 747              	.LVL64:
 748              	.L56:
 749              		.loc 1 163 0
 750 0048 0948     		ldr	r0, .L64+20
 751              	.LVL65:
 752 004a F2E7     		b	.L51
 753              	.LVL66:
 754              	.L58:
 755              		.loc 1 169 0
 756 004c 0948     		ldr	r0, .L64+24
 757              	.LVL67:
 758 004e F0E7     		b	.L51
 759              	.LVL68:
 760              	.L59:
 761              		.loc 1 172 0
 762 0050 0948     		ldr	r0, .L64+28
 763              	.LVL69:
 764 0052 EEE7     		b	.L51
 765              	.LVL70:
 766              	.L60:
 767              		.loc 1 175 0
 768 0054 0948     		ldr	r0, .L64+32
 769              	.LVL71:
 770 0056 ECE7     		b	.L51
 771              	.L63:
 772              		.loc 1 183 0
 773 0058 FFF7FEFF 		bl	__stack_chk_fail
 774              	.LVL72:
 775              	.L65:
 776              		.align	2
 777              	.L64:
 778 005c 00000000 		.word	__stack_chk_guard
 779 0060 00000000 		.word	micBack_output
 780 0064 00000000 		.word	micLeft_cmplx_input
 781 0068 00000000 		.word	micRight_cmplx_input
 782 006c 00000000 		.word	micBack_cmplx_input
 783 0070 00000000 		.word	micFront_cmplx_input
 784 0074 00000000 		.word	micLeft_output
 785 0078 00000000 		.word	micRight_output
 786 007c 00000000 		.word	micFront_output
 787              		.cfi_endproc
 788              	.LFE293:
 789              		.size	get_audio_buffer_ptr, .-get_audio_buffer_ptr
 790              		.section	.text.get_start_detected,"ax",%progbits
 791              		.align	1
 792              		.p2align 4,,15
 793              		.global	get_start_detected
 794              		.syntax unified
 795              		.thumb
 796              		.thumb_func
 797              		.fpu fpv4-sp-d16
 798              		.type	get_start_detected, %function
ARM GAS  C:\Users\Acer\AppData\Local\Temp\cc4nziWa.s 			page 15


 799              	get_start_detected:
 800              	.LFB294:
 801              		.loc 1 185 0
 802              		.cfi_startproc
 803              		@ args = 0, pretend = 0, frame = 8
 804              		@ frame_needed = 0, uses_anonymous_args = 0
 805 0000 00B5     		push	{lr}
 806              		.cfi_def_cfa_offset 4
 807              		.cfi_offset 14, -4
 808 0002 074B     		ldr	r3, .L70
 809              		.loc 1 186 0
 810 0004 0749     		ldr	r1, .L70+4
 811              		.loc 1 185 0
 812 0006 1A68     		ldr	r2, [r3]
 813              		.loc 1 187 0
 814 0008 0878     		ldrb	r0, [r1]	@ zero_extendqisi2
 815              		.loc 1 185 0
 816 000a 83B0     		sub	sp, sp, #12
 817              		.cfi_def_cfa_offset 16
 818              		.loc 1 185 0
 819 000c 0192     		str	r2, [sp, #4]
 820              		.loc 1 187 0
 821 000e 019A     		ldr	r2, [sp, #4]
 822 0010 1B68     		ldr	r3, [r3]
 823 0012 9A42     		cmp	r2, r3
 824 0014 02D1     		bne	.L69
 825 0016 03B0     		add	sp, sp, #12
 826              		.cfi_remember_state
 827              		.cfi_def_cfa_offset 4
 828              		@ sp needed
 829 0018 5DF804FB 		ldr	pc, [sp], #4
 830              	.L69:
 831              		.cfi_restore_state
 832 001c FFF7FEFF 		bl	__stack_chk_fail
 833              	.LVL73:
 834              	.L71:
 835              		.align	2
 836              	.L70:
 837 0020 00000000 		.word	__stack_chk_guard
 838 0024 00000000 		.word	.LANCHOR0
 839              		.cfi_endproc
 840              	.LFE294:
 841              		.size	get_start_detected, .-get_start_detected
 842              		.section	.text.set_start_detected,"ax",%progbits
 843              		.align	1
 844              		.p2align 4,,15
 845              		.global	set_start_detected
 846              		.syntax unified
 847              		.thumb
 848              		.thumb_func
 849              		.fpu fpv4-sp-d16
 850              		.type	set_start_detected, %function
 851              	set_start_detected:
 852              	.LFB295:
 853              		.loc 1 189 0
 854              		.cfi_startproc
 855              		@ args = 0, pretend = 0, frame = 8
ARM GAS  C:\Users\Acer\AppData\Local\Temp\cc4nziWa.s 			page 16


 856              		@ frame_needed = 0, uses_anonymous_args = 0
 857              	.LVL74:
 858 0000 00B5     		push	{lr}
 859              		.cfi_def_cfa_offset 4
 860              		.cfi_offset 14, -4
 861 0002 074B     		ldr	r3, .L76
 862              		.loc 1 190 0
 863 0004 0749     		ldr	r1, .L76+4
 864              		.loc 1 189 0
 865 0006 1A68     		ldr	r2, [r3]
 866              		.loc 1 190 0
 867 0008 0870     		strb	r0, [r1]
 868              		.loc 1 189 0
 869 000a 83B0     		sub	sp, sp, #12
 870              		.cfi_def_cfa_offset 16
 871              		.loc 1 189 0
 872 000c 0192     		str	r2, [sp, #4]
 873              		.loc 1 191 0
 874 000e 019A     		ldr	r2, [sp, #4]
 875 0010 1B68     		ldr	r3, [r3]
 876 0012 9A42     		cmp	r2, r3
 877 0014 02D1     		bne	.L75
 878 0016 03B0     		add	sp, sp, #12
 879              		.cfi_remember_state
 880              		.cfi_def_cfa_offset 4
 881              		@ sp needed
 882 0018 5DF804FB 		ldr	pc, [sp], #4
 883              	.L75:
 884              		.cfi_restore_state
 885 001c FFF7FEFF 		bl	__stack_chk_fail
 886              	.LVL75:
 887              	.L77:
 888              		.align	2
 889              	.L76:
 890 0020 00000000 		.word	__stack_chk_guard
 891 0024 00000000 		.word	.LANCHOR0
 892              		.cfi_endproc
 893              	.LFE295:
 894              		.size	set_start_detected, .-set_start_detected
 895              		.section	.text.get_start_celeb,"ax",%progbits
 896              		.align	1
 897              		.p2align 4,,15
 898              		.global	get_start_celeb
 899              		.syntax unified
 900              		.thumb
 901              		.thumb_func
 902              		.fpu fpv4-sp-d16
 903              		.type	get_start_celeb, %function
 904              	get_start_celeb:
 905              	.LFB296:
 906              		.loc 1 192 0
 907              		.cfi_startproc
 908              		@ args = 0, pretend = 0, frame = 8
 909              		@ frame_needed = 0, uses_anonymous_args = 0
 910 0000 00B5     		push	{lr}
 911              		.cfi_def_cfa_offset 4
 912              		.cfi_offset 14, -4
ARM GAS  C:\Users\Acer\AppData\Local\Temp\cc4nziWa.s 			page 17


 913 0002 074B     		ldr	r3, .L82
 914              		.loc 1 193 0
 915 0004 0749     		ldr	r1, .L82+4
 916              		.loc 1 192 0
 917 0006 1A68     		ldr	r2, [r3]
 918              		.loc 1 194 0
 919 0008 0878     		ldrb	r0, [r1]	@ zero_extendqisi2
 920              		.loc 1 192 0
 921 000a 83B0     		sub	sp, sp, #12
 922              		.cfi_def_cfa_offset 16
 923              		.loc 1 192 0
 924 000c 0192     		str	r2, [sp, #4]
 925              		.loc 1 194 0
 926 000e 019A     		ldr	r2, [sp, #4]
 927 0010 1B68     		ldr	r3, [r3]
 928 0012 9A42     		cmp	r2, r3
 929 0014 02D1     		bne	.L81
 930 0016 03B0     		add	sp, sp, #12
 931              		.cfi_remember_state
 932              		.cfi_def_cfa_offset 4
 933              		@ sp needed
 934 0018 5DF804FB 		ldr	pc, [sp], #4
 935              	.L81:
 936              		.cfi_restore_state
 937 001c FFF7FEFF 		bl	__stack_chk_fail
 938              	.LVL76:
 939              	.L83:
 940              		.align	2
 941              	.L82:
 942 0020 00000000 		.word	__stack_chk_guard
 943 0024 00000000 		.word	.LANCHOR3
 944              		.cfi_endproc
 945              	.LFE296:
 946              		.size	get_start_celeb, .-get_start_celeb
 947              		.section	.text.set_start_celeb,"ax",%progbits
 948              		.align	1
 949              		.p2align 4,,15
 950              		.global	set_start_celeb
 951              		.syntax unified
 952              		.thumb
 953              		.thumb_func
 954              		.fpu fpv4-sp-d16
 955              		.type	set_start_celeb, %function
 956              	set_start_celeb:
 957              	.LFB297:
 958              		.loc 1 196 0
 959              		.cfi_startproc
 960              		@ args = 0, pretend = 0, frame = 8
 961              		@ frame_needed = 0, uses_anonymous_args = 0
 962              	.LVL77:
 963 0000 00B5     		push	{lr}
 964              		.cfi_def_cfa_offset 4
 965              		.cfi_offset 14, -4
 966 0002 074B     		ldr	r3, .L88
 967              		.loc 1 197 0
 968 0004 0749     		ldr	r1, .L88+4
 969              		.loc 1 196 0
ARM GAS  C:\Users\Acer\AppData\Local\Temp\cc4nziWa.s 			page 18


 970 0006 1A68     		ldr	r2, [r3]
 971              		.loc 1 197 0
 972 0008 0870     		strb	r0, [r1]
 973              		.loc 1 196 0
 974 000a 83B0     		sub	sp, sp, #12
 975              		.cfi_def_cfa_offset 16
 976              		.loc 1 196 0
 977 000c 0192     		str	r2, [sp, #4]
 978              		.loc 1 198 0
 979 000e 019A     		ldr	r2, [sp, #4]
 980 0010 1B68     		ldr	r3, [r3]
 981 0012 9A42     		cmp	r2, r3
 982 0014 02D1     		bne	.L87
 983 0016 03B0     		add	sp, sp, #12
 984              		.cfi_remember_state
 985              		.cfi_def_cfa_offset 4
 986              		@ sp needed
 987 0018 5DF804FB 		ldr	pc, [sp], #4
 988              	.L87:
 989              		.cfi_restore_state
 990 001c FFF7FEFF 		bl	__stack_chk_fail
 991              	.LVL78:
 992              	.L89:
 993              		.align	2
 994              	.L88:
 995 0020 00000000 		.word	__stack_chk_guard
 996 0024 00000000 		.word	.LANCHOR3
 997              		.cfi_endproc
 998              	.LFE297:
 999              		.size	set_start_celeb, .-set_start_celeb
 1000              		.section	.text.get_time_start,"ax",%progbits
 1001              		.align	1
 1002              		.p2align 4,,15
 1003              		.global	get_time_start
 1004              		.syntax unified
 1005              		.thumb
 1006              		.thumb_func
 1007              		.fpu fpv4-sp-d16
 1008              		.type	get_time_start, %function
 1009              	get_time_start:
 1010              	.LFB298:
 1011              		.loc 1 199 0
 1012              		.cfi_startproc
 1013              		@ args = 0, pretend = 0, frame = 8
 1014              		@ frame_needed = 0, uses_anonymous_args = 0
 1015 0000 00B5     		push	{lr}
 1016              		.cfi_def_cfa_offset 4
 1017              		.cfi_offset 14, -4
 1018 0002 074B     		ldr	r3, .L94
 1019              		.loc 1 200 0
 1020 0004 0749     		ldr	r1, .L94+4
 1021              		.loc 1 199 0
 1022 0006 1A68     		ldr	r2, [r3]
 1023              		.loc 1 201 0
 1024 0008 0868     		ldr	r0, [r1]
 1025              		.loc 1 199 0
 1026 000a 83B0     		sub	sp, sp, #12
ARM GAS  C:\Users\Acer\AppData\Local\Temp\cc4nziWa.s 			page 19


 1027              		.cfi_def_cfa_offset 16
 1028              		.loc 1 199 0
 1029 000c 0192     		str	r2, [sp, #4]
 1030              		.loc 1 201 0
 1031 000e 019A     		ldr	r2, [sp, #4]
 1032 0010 1B68     		ldr	r3, [r3]
 1033 0012 9A42     		cmp	r2, r3
 1034 0014 02D1     		bne	.L93
 1035 0016 03B0     		add	sp, sp, #12
 1036              		.cfi_remember_state
 1037              		.cfi_def_cfa_offset 4
 1038              		@ sp needed
 1039 0018 5DF804FB 		ldr	pc, [sp], #4
 1040              	.L93:
 1041              		.cfi_restore_state
 1042 001c FFF7FEFF 		bl	__stack_chk_fail
 1043              	.LVL79:
 1044              	.L95:
 1045              		.align	2
 1046              	.L94:
 1047 0020 00000000 		.word	__stack_chk_guard
 1048 0024 00000000 		.word	.LANCHOR2
 1049              		.cfi_endproc
 1050              	.LFE298:
 1051              		.size	get_time_start, .-get_time_start
 1052              		.section	.bss.micBack_cmplx_input,"aw",%nobits
 1053              		.align	2
 1054              		.type	micBack_cmplx_input, %object
 1055              		.size	micBack_cmplx_input, 8192
 1056              	micBack_cmplx_input:
 1057 0000 00000000 		.space	8192
 1057      00000000 
 1057      00000000 
 1057      00000000 
 1057      00000000 
 1058              		.section	.bss.micBack_output,"aw",%nobits
 1059              		.align	2
 1060              		.type	micBack_output, %object
 1061              		.size	micBack_output, 4096
 1062              	micBack_output:
 1063 0000 00000000 		.space	4096
 1063      00000000 
 1063      00000000 
 1063      00000000 
 1063      00000000 
 1064              		.section	.bss.micFront_cmplx_input,"aw",%nobits
 1065              		.align	2
 1066              		.type	micFront_cmplx_input, %object
 1067              		.size	micFront_cmplx_input, 8192
 1068              	micFront_cmplx_input:
 1069 0000 00000000 		.space	8192
 1069      00000000 
 1069      00000000 
 1069      00000000 
 1069      00000000 
 1070              		.section	.bss.micFront_output,"aw",%nobits
 1071              		.align	2
ARM GAS  C:\Users\Acer\AppData\Local\Temp\cc4nziWa.s 			page 20


 1072              		.type	micFront_output, %object
 1073              		.size	micFront_output, 4096
 1074              	micFront_output:
 1075 0000 00000000 		.space	4096
 1075      00000000 
 1075      00000000 
 1075      00000000 
 1075      00000000 
 1076              		.section	.bss.micLeft_cmplx_input,"aw",%nobits
 1077              		.align	2
 1078              		.type	micLeft_cmplx_input, %object
 1079              		.size	micLeft_cmplx_input, 8192
 1080              	micLeft_cmplx_input:
 1081 0000 00000000 		.space	8192
 1081      00000000 
 1081      00000000 
 1081      00000000 
 1081      00000000 
 1082              		.section	.bss.micLeft_output,"aw",%nobits
 1083              		.align	2
 1084              		.type	micLeft_output, %object
 1085              		.size	micLeft_output, 4096
 1086              	micLeft_output:
 1087 0000 00000000 		.space	4096
 1087      00000000 
 1087      00000000 
 1087      00000000 
 1087      00000000 
 1088              		.section	.bss.micRight_cmplx_input,"aw",%nobits
 1089              		.align	2
 1090              		.type	micRight_cmplx_input, %object
 1091              		.size	micRight_cmplx_input, 8192
 1092              	micRight_cmplx_input:
 1093 0000 00000000 		.space	8192
 1093      00000000 
 1093      00000000 
 1093      00000000 
 1093      00000000 
 1094              		.section	.bss.micRight_output,"aw",%nobits
 1095              		.align	2
 1096              		.type	micRight_output, %object
 1097              		.size	micRight_output, 4096
 1098              	micRight_output:
 1099 0000 00000000 		.space	4096
 1099      00000000 
 1099      00000000 
 1099      00000000 
 1099      00000000 
 1100              		.section	.bss.mustSend.14192,"aw",%nobits
 1101              		.set	.LANCHOR5,. + 0
 1102              		.type	mustSend.14192, %object
 1103              		.size	mustSend.14192, 1
 1104              	mustSend.14192:
 1105 0000 00       		.space	1
 1106              		.section	.bss.nb_samples.14191,"aw",%nobits
 1107              		.align	1
 1108              		.set	.LANCHOR4,. + 0
ARM GAS  C:\Users\Acer\AppData\Local\Temp\cc4nziWa.s 			page 21


 1109              		.type	nb_samples.14191, %object
 1110              		.size	nb_samples.14191, 2
 1111              	nb_samples.14191:
 1112 0000 0000     		.space	2
 1113              		.section	.bss.start_celeb,"aw",%nobits
 1114              		.set	.LANCHOR3,. + 0
 1115              		.type	start_celeb, %object
 1116              		.size	start_celeb, 1
 1117              	start_celeb:
 1118 0000 00       		.space	1
 1119              		.section	.bss.start_detected,"aw",%nobits
 1120              		.set	.LANCHOR0,. + 0
 1121              		.type	start_detected, %object
 1122              		.size	start_detected, 1
 1123              	start_detected:
 1124 0000 00       		.space	1
 1125              		.section	.bss.time_start,"aw",%nobits
 1126              		.align	2
 1127              		.set	.LANCHOR2,. + 0
 1128              		.type	time_start, %object
 1129              		.size	time_start, 4
 1130              	time_start:
 1131 0000 00000000 		.space	4
 1132              		.section	.data.sendToComputer_sem,"aw",%progbits
 1133              		.align	2
 1134              		.set	.LANCHOR6,. + 0
 1135              		.type	sendToComputer_sem, %object
 1136              		.size	sendToComputer_sem, 12
 1137              	sendToComputer_sem:
 1138 0000 00000000 		.word	sendToComputer_sem
 1139 0004 00000000 		.word	sendToComputer_sem
 1140 0008 00000000 		.word	0
 1141              		.section	.rodata.__func__.7153,"a",%progbits
 1142              		.align	2
 1143              		.set	.LANCHOR1,. + 0
 1144              		.type	__func__.7153, %object
 1145              		.size	__func__.7153, 12
 1146              	__func__.7153:
 1147 0000 63685379 		.ascii	"chSysUnlock\000"
 1147      73556E6C 
 1147      6F636B00 
 1148              		.text
 1149              	.Letext0:
 1150              		.file 6 "c:\\users\\acer\\desktop\\microinformatique-tp\\eclipse_e-puck2\\tools\\gcc-arm-none-eabi
 1151              		.file 7 "c:\\users\\acer\\desktop\\microinformatique-tp\\eclipse_e-puck2\\tools\\gcc-arm-none-eabi
 1152              		.file 8 "c:\\users\\acer\\desktop\\microinformatique-tp\\eclipse_e-puck2\\tools\\gcc-arm-none-eabi
 1153              		.file 9 "../../lib/e-puck2_main-processor/ChibiOS//os/rt/ports/ARMCMx/compilers/GCC/chtypes.h"
 1154              		.file 10 "../../lib/e-puck2_main-processor/ChibiOS//os/rt/include/chsystypes.h"
 1155              		.file 11 "../../lib/e-puck2_main-processor/ChibiOS//os/rt/include/chschd.h"
 1156              		.file 12 "../../lib/e-puck2_main-processor/ChibiOS//os/ext/CMSIS/include/core_cm4.h"
 1157              		.file 13 "../../lib/e-puck2_main-processor/ChibiOS//os/ext/CMSIS/ST/system_stm32f4xx.h"
 1158              		.file 14 "../../lib/e-puck2_main-processor/ChibiOS//os/ext/CMSIS/ST/stm32f407xx.h"
 1159              		.file 15 "../../lib/e-puck2_main-processor/ChibiOS//os/rt/ports/ARMCMx/chcore.h"
 1160              		.file 16 "../../lib/e-puck2_main-processor/ChibiOS//os/rt/ports/ARMCMx/chcore_v7m.h"
 1161              		.file 17 "../../lib/e-puck2_main-processor/ChibiOS//os/rt/include/chdebug.h"
 1162              		.file 18 "../../lib/e-puck2_main-processor/ChibiOS//os/rt/include/chtm.h"
 1163              		.file 19 "../../lib/e-puck2_main-processor/ChibiOS//os/rt/include/chstats.h"
ARM GAS  C:\Users\Acer\AppData\Local\Temp\cc4nziWa.s 			page 22


 1164              		.file 20 "../../lib/e-puck2_main-processor/ChibiOS//os/rt/include/chsem.h"
 1165              		.file 21 "../../lib/e-puck2_main-processor/ChibiOS//os/rt/include/chmtx.h"
 1166              		.file 22 "../../lib/e-puck2_main-processor/ChibiOS//os/rt/include/chregistry.h"
 1167              		.file 23 "../../lib/e-puck2_main-processor/ChibiOS//os/rt/include/chevents.h"
 1168              		.file 24 "../../lib/e-puck2_main-processor/ChibiOS//os/rt/include/chqueues.h"
 1169              		.file 25 "../../lib/e-puck2_main-processor/ChibiOS//os/hal/ports/STM32/STM32F4xx/stm32_dma.h"
 1170              		.file 26 "../../lib/e-puck2_main-processor/ChibiOS//os/hal/include/hal_ioblock.h"
 1171              		.file 27 "../../lib/e-puck2_main-processor/ChibiOS//os/hal/ports/STM32/LLD/GPIOv2/pal_lld.h"
 1172              		.file 28 "../../lib/e-puck2_main-processor/ChibiOS//os/hal/include/adc.h"
 1173              		.file 29 "../../lib/e-puck2_main-processor/ChibiOS//os/hal/ports/STM32/STM32F4xx/adc_lld.h"
 1174              		.file 30 "../../lib/e-puck2_main-processor/ChibiOS//os/hal/include/can.h"
 1175              		.file 31 "../../lib/e-puck2_main-processor/ChibiOS//os/hal/ports/STM32/LLD/can_lld.h"
 1176              		.file 32 "../../lib/e-puck2_main-processor/ChibiOS//os/hal/include/dac.h"
 1177              		.file 33 "../../lib/e-puck2_main-processor/ChibiOS//os/hal/ports/STM32/LLD/DACv1/dac_lld.h"
 1178              		.file 34 "../../lib/e-puck2_main-processor/ChibiOS//os/hal/include/ext.h"
 1179              		.file 35 "../../lib/e-puck2_main-processor/ChibiOS//os/hal/ports/STM32/LLD/ext_lld.h"
 1180              		.file 36 "../../lib/e-puck2_main-processor/ChibiOS//os/hal/include/gpt.h"
 1181              		.file 37 "../../lib/e-puck2_main-processor/ChibiOS//os/hal/ports/STM32/LLD/TIMv1/gpt_lld.h"
 1182              		.file 38 "../../lib/e-puck2_main-processor/ChibiOS//os/hal/ports/STM32/LLD/TIMv1/stm32_tim.h"
 1183              		.file 39 "../../lib/e-puck2_main-processor/ChibiOS//os/hal/include/i2c.h"
 1184              		.file 40 "../../lib/e-puck2_main-processor/ChibiOS//os/hal/ports/STM32/LLD/I2Cv1/i2c_lld.h"
 1185              		.file 41 "../../lib/e-puck2_main-processor/ChibiOS//os/hal/include/i2s.h"
 1186              		.file 42 "../../lib/e-puck2_main-processor/ChibiOS//os/hal/ports/STM32/LLD/SPIv1/i2s_lld.h"
 1187              		.file 43 "../../lib/e-puck2_main-processor/ChibiOS//os/hal/include/pwm.h"
 1188              		.file 44 "../../lib/e-puck2_main-processor/ChibiOS//os/hal/ports/STM32/LLD/TIMv1/pwm_lld.h"
 1189              		.file 45 "../../lib/e-puck2_main-processor/ChibiOS//os/hal/include/serial.h"
 1190              		.file 46 "../../lib/e-puck2_main-processor/ChibiOS//os/hal/ports/STM32/LLD/USARTv1/serial_lld.h"
 1191              		.file 47 "../../lib/e-puck2_main-processor/ChibiOS//os/hal/include/sdc.h"
 1192              		.file 48 "../../lib/e-puck2_main-processor/ChibiOS//os/hal/ports/STM32/LLD/sdc_lld.h"
 1193              		.file 49 "../../lib/e-puck2_main-processor/ChibiOS//os/hal/include/spi.h"
 1194              		.file 50 "../../lib/e-puck2_main-processor/ChibiOS//os/hal/ports/STM32/LLD/SPIv1/spi_lld.h"
 1195              		.file 51 "../../lib/e-puck2_main-processor/ChibiOS//os/hal/include/usb.h"
 1196              		.file 52 "../../lib/e-puck2_main-processor/ChibiOS//os/hal/ports/STM32/LLD/OTGv1/usb_lld.h"
 1197              		.file 53 "../../lib/e-puck2_main-processor/ChibiOS//os/hal/ports/STM32/LLD/OTGv1/stm32_otg.h"
 1198              		.file 54 "../../lib/e-puck2_main-processor/ChibiOS//os/hal/include/serial_usb.h"
 1199              		.file 55 "../../lib/e-puck2_main-processor/ChibiOS_ext/os/hal/include/../ports/STM32/STM32F4xx/dcm
 1200              		.file 56 "c:\\users\\acer\\desktop\\microinformatique-tp\\eclipse_e-puck2\\tools\\gcc-arm-none-eab
 1201              		.file 57 "c:\\users\\acer\\desktop\\microinformatique-tp\\eclipse_e-puck2\\tools\\gcc-arm-none-eab
 1202              		.file 58 "c:\\users\\acer\\desktop\\microinformatique-tp\\eclipse_e-puck2\\tools\\gcc-arm-none-eab
 1203              		.file 59 "../../lib/e-puck2_main-processor/src/msgbus/messagebus.h"
 1204              		.file 60 "c:\\users\\acer\\desktop\\microinformatique-tp\\eclipse_e-puck2\\tools\\gcc-arm-none-eab
 1205              		.file 61 "c:\\users\\acer\\desktop\\microinformatique-tp\\eclipse_e-puck2\\tools\\gcc-arm-none-eab
 1206              		.file 62 "../../lib/e-puck2_main-processor/src/parameter/parameter.h"
 1207              		.file 63 "./main.h"
 1208              		.file 64 "../../lib/e-puck2_main-processor/src/usbcfg.h"
 1209              		.file 65 "./audio_processing.h"
 1210              		.file 66 "c:\\users\\acer\\desktop\\microinformatique-tp\\eclipse_e-puck2\\tools\\gcc-arm-none-eab
 1211              		.file 67 "./fft.h"
 1212              		.file 68 "../../lib/e-puck2_main-processor/ChibiOS//os/ext/CMSIS/include/arm_math.h"