ARM GAS  /var/folders/21/4q6hj_5j77l1y0kst8hx_6f00000gn/T//ccRhsOW8.s 			page 1


   1              		.cpu cortex-m4
   2              		.eabi_attribute 27, 1
   3              		.eabi_attribute 28, 1
   4              		.eabi_attribute 20, 1
   5              		.eabi_attribute 21, 1
   6              		.eabi_attribute 23, 3
   7              		.eabi_attribute 24, 1
   8              		.eabi_attribute 25, 1
   9              		.eabi_attribute 26, 1
  10              		.eabi_attribute 30, 2
  11              		.eabi_attribute 34, 1
  12              		.eabi_attribute 18, 4
  13              		.file	"main.c"
  14              		.text
  15              	.Ltext0:
  16              		.cfi_sections	.debug_frame
  17              		.section	.text.celebrate,"ax",%progbits
  18              		.align	1
  19              		.p2align 4,,15
  20              		.global	celebrate
  21              		.syntax unified
  22              		.thumb
  23              		.thumb_func
  24              		.fpu fpv4-sp-d16
  25              		.type	celebrate, %function
  26              	celebrate:
  27              	.LFB294:
  28              		.file 1 "main.c"
  29              		.loc 1 80 0
  30              		.cfi_startproc
  31              		@ args = 0, pretend = 0, frame = 8
  32              		@ frame_needed = 0, uses_anonymous_args = 0
  33              	.LVL0:
  34 0000 70B5     		push	{r4, r5, r6, lr}
  35              		.cfi_def_cfa_offset 16
  36              		.cfi_offset 4, -16
  37              		.cfi_offset 5, -12
  38              		.cfi_offset 6, -8
  39              		.cfi_offset 14, -4
  40 0002 224D     		ldr	r5, .L17
  41 0004 0646     		mov	r6, r0
  42 0006 82B0     		sub	sp, sp, #8
  43              		.cfi_def_cfa_offset 24
  44              		.loc 1 80 0
  45 0008 2B68     		ldr	r3, [r5]
  46 000a 0193     		str	r3, [sp, #4]
  47              		.loc 1 81 0
  48 000c 0020     		movs	r0, #0
  49              	.LVL1:
  50 000e FFF7FEFF 		bl	set_start_celeb
  51              	.LVL2:
  52              		.loc 1 82 0
  53 0012 3478     		ldrb	r4, [r6]	@ zero_extendqisi2
  54 0014 0134     		adds	r4, r4, #1
  55 0016 E4B2     		uxtb	r4, r4
  56              		.loc 1 83 0
  57 0018 022C     		cmp	r4, #2
ARM GAS  /var/folders/21/4q6hj_5j77l1y0kst8hx_6f00000gn/T//ccRhsOW8.s 			page 2


  58              		.loc 1 82 0
  59 001a 3470     		strb	r4, [r6]
  60              		.loc 1 94 0
  61 001c 4FF00003 		mov	r3, #0
  62              		.loc 1 83 0
  63 0020 2ED0     		beq	.L3
  64 0022 032C     		cmp	r4, #3
  65              		.loc 1 103 0
  66 0024 1946     		mov	r1, r3
  67              		.loc 1 83 0
  68 0026 28D0     		beq	.L4
  69 0028 012C     		cmp	r4, #1
  70 002a 12D0     		beq	.L16
  71              		.loc 1 112 0
  72 002c 1846     		mov	r0, r3
  73 002e 0A22     		movs	r2, #10
  74 0030 FFF7FEFF 		bl	set_rgb_led
  75              	.LVL3:
  76              		.loc 1 113 0
  77 0034 0220     		movs	r0, #2
  78 0036 FFF7FEFF 		bl	set_body_led
  79              	.LVL4:
  80              		.loc 1 114 0
  81 003a 019A     		ldr	r2, [sp, #4]
  82 003c 2B68     		ldr	r3, [r5]
  83 003e 9A42     		cmp	r2, r3
  84 0040 22D1     		bne	.L13
  85 0042 0022     		movs	r2, #0
  86 0044 1146     		mov	r1, r2
  87 0046 0120     		movs	r0, #1
  88              		.loc 1 117 0
  89 0048 02B0     		add	sp, sp, #8
  90              		.cfi_remember_state
  91              		.cfi_def_cfa_offset 16
  92              		@ sp needed
  93 004a BDE87040 		pop	{r4, r5, r6, lr}
  94              		.cfi_restore 14
  95              		.cfi_restore 6
  96              		.cfi_restore 5
  97              		.cfi_restore 4
  98              		.cfi_def_cfa_offset 0
  99              	.LVL5:
 100              		.loc 1 114 0
 101 004e FFF7FEBF 		b	playMelody
 102              	.LVL6:
 103              	.L16:
 104              		.cfi_restore_state
 105              		.loc 1 85 0
 106 0052 0A22     		movs	r2, #10
 107 0054 0320     		movs	r0, #3
 108              	.L14:
 109              		.loc 1 103 0
 110 0056 FFF7FEFF 		bl	set_rgb_led
 111              	.LVL7:
 112              		.loc 1 107 0
 113 005a 0020     		movs	r0, #0
 114 005c FFF7FEFF 		bl	set_start_detected
ARM GAS  /var/folders/21/4q6hj_5j77l1y0kst8hx_6f00000gn/T//ccRhsOW8.s 			page 3


 115              	.LVL8:
 116              		.loc 1 109 0
 117 0060 019A     		ldr	r2, [sp, #4]
 118 0062 2B68     		ldr	r3, [r5]
 119              	.LBB38:
 120              	.LBB39:
 121              		.loc 1 176 0
 122 0064 0A49     		ldr	r1, .L17+4
 123 0066 0020     		movs	r0, #0
 124              	.LBE39:
 125              	.LBE38:
 126              		.loc 1 109 0
 127 0068 9A42     		cmp	r2, r3
 128              	.LBB41:
 129              	.LBB40:
 130              		.loc 1 176 0
 131 006a 0870     		strb	r0, [r1]
 132              	.LVL9:
 133              	.LBE40:
 134              	.LBE41:
 135              		.loc 1 109 0
 136 006c 0CD1     		bne	.L13
 137 006e 0120     		movs	r0, #1
 138              		.loc 1 117 0
 139 0070 02B0     		add	sp, sp, #8
 140              		.cfi_remember_state
 141              		.cfi_def_cfa_offset 16
 142              		@ sp needed
 143 0072 BDE87040 		pop	{r4, r5, r6, lr}
 144              		.cfi_restore 14
 145              		.cfi_restore 6
 146              		.cfi_restore 5
 147              		.cfi_restore 4
 148              		.cfi_def_cfa_offset 0
 149              	.LVL10:
 150              		.loc 1 109 0
 151 0076 FFF7FEBF 		b	set_no_goal
 152              	.LVL11:
 153              	.L4:
 154              		.cfi_restore_state
 155              		.loc 1 103 0
 156 007a 0A22     		movs	r2, #10
 157 007c 0120     		movs	r0, #1
 158 007e EAE7     		b	.L14
 159              	.L3:
 160              		.loc 1 94 0
 161 0080 2046     		mov	r0, r4
 162 0082 1946     		mov	r1, r3
 163 0084 0A22     		movs	r2, #10
 164 0086 E6E7     		b	.L14
 165              	.L13:
 166              		.loc 1 114 0
 167 0088 FFF7FEFF 		bl	__stack_chk_fail
 168              	.LVL12:
 169              	.L18:
 170              		.align	2
 171              	.L17:
ARM GAS  /var/folders/21/4q6hj_5j77l1y0kst8hx_6f00000gn/T//ccRhsOW8.s 			page 4


 172 008c 00000000 		.word	__stack_chk_guard
 173 0090 00000000 		.word	.LANCHOR0
 174              		.cfi_endproc
 175              	.LFE294:
 176              		.size	celebrate, .-celebrate
 177              		.section	.text.game_over,"ax",%progbits
 178              		.align	1
 179              		.p2align 4,,15
 180              		.global	game_over
 181              		.syntax unified
 182              		.thumb
 183              		.thumb_func
 184              		.fpu fpv4-sp-d16
 185              		.type	game_over, %function
 186              	game_over:
 187              	.LFB295:
 188              		.loc 1 121 0
 189              		.cfi_startproc
 190              		@ args = 0, pretend = 0, frame = 8
 191              		@ frame_needed = 0, uses_anonymous_args = 0
 192 0000 30B5     		push	{r4, r5, lr}
 193              		.cfi_def_cfa_offset 12
 194              		.cfi_offset 4, -12
 195              		.cfi_offset 5, -8
 196              		.cfi_offset 14, -4
 197 0002 194C     		ldr	r4, .L24
 198              		.loc 1 122 0
 199 0004 194B     		ldr	r3, .L24+4
 200              		.loc 1 121 0
 201 0006 2268     		ldr	r2, [r4]
 202 0008 83B0     		sub	sp, sp, #12
 203              		.cfi_def_cfa_offset 24
 204              		.loc 1 122 0
 205 000a 0125     		movs	r5, #1
 206              		.loc 1 123 0
 207 000c 0020     		movs	r0, #0
 208              		.loc 1 122 0
 209 000e 1D70     		strb	r5, [r3]
 210              		.loc 1 121 0
 211 0010 0192     		str	r2, [sp, #4]
 212              		.loc 1 123 0
 213 0012 FFF7FEFF 		bl	left_motor_set_speed
 214              	.LVL13:
 215              		.loc 1 124 0
 216 0016 0020     		movs	r0, #0
 217 0018 FFF7FEFF 		bl	right_motor_set_speed
 218              	.LVL14:
 219              		.loc 1 125 0
 220 001c 0A22     		movs	r2, #10
 221 001e 0221     		movs	r1, #2
 222 0020 0320     		movs	r0, #3
 223 0022 FFF7FEFF 		bl	toggle_rgb_led
 224              	.LVL15:
 225              		.loc 1 126 0
 226 0026 0221     		movs	r1, #2
 227 0028 0846     		mov	r0, r1
 228 002a 0A22     		movs	r2, #10
ARM GAS  /var/folders/21/4q6hj_5j77l1y0kst8hx_6f00000gn/T//ccRhsOW8.s 			page 5


 229 002c FFF7FEFF 		bl	toggle_rgb_led
 230              	.LVL16:
 231              		.loc 1 127 0
 232 0030 2846     		mov	r0, r5
 233 0032 0A22     		movs	r2, #10
 234 0034 0221     		movs	r1, #2
 235 0036 FFF7FEFF 		bl	toggle_rgb_led
 236              	.LVL17:
 237              		.loc 1 128 0
 238 003a 0A22     		movs	r2, #10
 239 003c 0221     		movs	r1, #2
 240 003e 0020     		movs	r0, #0
 241 0040 FFF7FEFF 		bl	toggle_rgb_led
 242              	.LVL18:
 243              		.loc 1 129 0
 244 0044 0220     		movs	r0, #2
 245 0046 FFF7FEFF 		bl	set_front_led
 246              	.LVL19:
 247              		.loc 1 130 0
 248 004a 019A     		ldr	r2, [sp, #4]
 249 004c 2368     		ldr	r3, [r4]
 250 004e 9A42     		cmp	r2, r3
 251 0050 07D1     		bne	.L23
 252 0052 0022     		movs	r2, #0
 253 0054 1146     		mov	r1, r2
 254 0056 0620     		movs	r0, #6
 255              		.loc 1 131 0
 256 0058 03B0     		add	sp, sp, #12
 257              		.cfi_remember_state
 258              		.cfi_def_cfa_offset 12
 259              		@ sp needed
 260 005a BDE83040 		pop	{r4, r5, lr}
 261              		.cfi_restore 14
 262              		.cfi_restore 5
 263              		.cfi_restore 4
 264              		.cfi_def_cfa_offset 0
 265              		.loc 1 130 0
 266 005e FFF7FEBF 		b	playMelody
 267              	.LVL20:
 268              	.L23:
 269              		.cfi_restore_state
 270 0062 FFF7FEFF 		bl	__stack_chk_fail
 271              	.LVL21:
 272              	.L25:
 273 0066 00BF     		.align	2
 274              	.L24:
 275 0068 00000000 		.word	__stack_chk_guard
 276 006c 00000000 		.word	.LANCHOR0
 277              		.cfi_endproc
 278              	.LFE295:
 279              		.size	game_over, .-game_over
 280              		.section	.text.startup.main,"ax",%progbits
 281              		.align	1
 282              		.p2align 4,,15
 283              		.global	main
 284              		.syntax unified
 285              		.thumb
ARM GAS  /var/folders/21/4q6hj_5j77l1y0kst8hx_6f00000gn/T//ccRhsOW8.s 			page 6


 286              		.thumb_func
 287              		.fpu fpv4-sp-d16
 288              		.type	main, %function
 289              	main:
 290              	.LFB296:
 291              		.loc 1 135 0
 292              		.cfi_startproc
 293              		@ Volatile: function does not return.
 294              		@ args = 0, pretend = 0, frame = 8
 295              		@ frame_needed = 0, uses_anonymous_args = 0
 296 0000 80B5     		push	{r7, lr}
 297              		.cfi_def_cfa_offset 8
 298              		.cfi_offset 7, -8
 299              		.cfi_offset 14, -4
 300 0002 314B     		ldr	r3, .L42
 301 0004 314F     		ldr	r7, .L42+4
 302 0006 1B68     		ldr	r3, [r3]
 303 0008 314D     		ldr	r5, .L42+8
 304              		.loc 1 154 0
 305 000a DFF8E090 		ldr	r9, .L42+36
 306              	.LBB58:
 307              	.LBB59:
 308              	.LBB60:
 309              	.LBB61:
 310              		.file 2 "../../lib/e-puck2_main-processor/ChibiOS//os/rt/include/chsys.h"
 311              		.loc 2 367 0
 312 000e DFF8E080 		ldr	r8, .L42+40
 313              	.LBE61:
 314              	.LBE60:
 315              	.LBE59:
 316              	.LBE58:
 317              		.loc 1 135 0
 318 0012 82B0     		sub	sp, sp, #8
 319              		.cfi_def_cfa_offset 16
 320              	.LBB81:
 321              	.LBB79:
 322              	.LBB66:
 323              	.LBB67:
 324              	.LBB68:
 325              	.LBB69:
 326              	.LBB70:
 327              		.file 3 "../../lib/e-puck2_main-processor/ChibiOS//os/ext/CMSIS/include/core_cmFunc.h"
 328              		.loc 3 546 0
 329 0014 2026     		movs	r6, #32
 330              	.LBE70:
 331              	.LBE69:
 332              	.LBE68:
 333              	.LBE67:
 334              	.LBE66:
 335              	.LBE79:
 336              	.LBE81:
 337              		.loc 1 135 0
 338 0016 0193     		str	r3, [sp, #4]
 339              		.loc 1 136 0
 340 0018 FFF7FEFF 		bl	halInit
 341              	.LVL22:
 342              		.loc 1 137 0
ARM GAS  /var/folders/21/4q6hj_5j77l1y0kst8hx_6f00000gn/T//ccRhsOW8.s 			page 7


 343 001c FFF7FEFF 		bl	chSysInit
 344              	.LVL23:
 345              	.LBB82:
 346              	.LBB83:
 347              		.loc 1 68 0
 348 0020 2C49     		ldr	r1, .L42+12
 349 0022 2D48     		ldr	r0, .L42+16
 350 0024 FFF7FEFF 		bl	sdStart
 351              	.LVL24:
 352              	.LBE83:
 353              	.LBE82:
 354              		.loc 1 139 0
 355 0028 FFF7FEFF 		bl	usb_start
 356              	.LVL25:
 357              		.loc 1 140 0
 358 002c FFF7FEFF 		bl	spi_comm_start
 359              	.LVL26:
 360              		.loc 1 141 0
 361 0030 FFF7FEFF 		bl	motors_init
 362              	.LVL27:
 363              		.loc 1 142 0
 364 0034 294A     		ldr	r2, .L42+20
 365 0036 2A49     		ldr	r1, .L42+24
 366 0038 2A48     		ldr	r0, .L42+28
 367 003a FFF7FEFF 		bl	messagebus_init
 368              	.LVL28:
 369              		.loc 1 143 0
 370 003e FFF7FEFF 		bl	proximity_start
 371              	.LVL29:
 372              		.loc 1 144 0
 373 0042 FFF7FEFF 		bl	calibrate_ir
 374              	.LVL30:
 375              		.loc 1 145 0
 376 0046 FFF7FEFF 		bl	VL53L0X_start
 377              	.LVL31:
 378              		.loc 1 146 0
 379 004a 2748     		ldr	r0, .L42+32
 380 004c FFF7FEFF 		bl	mic_start
 381              	.LVL32:
 382              		.loc 1 147 0
 383 0050 FFF7FEFF 		bl	start_search
 384              	.LVL33:
 385              		.loc 1 148 0
 386 0054 FFF7FEFF 		bl	dac_start
 387              	.LVL34:
 388              		.loc 1 149 0
 389 0058 FFF7FEFF 		bl	playMelodyStart
 390              	.LVL35:
 391 005c 03E0     		b	.L32
 392              	.L30:
 393              		.loc 1 159 0
 394 005e 4FF47A70 		mov	r0, #1000
 395 0062 FFF7FEFF 		bl	chThdSleep
 396              	.LVL36:
 397              	.L32:
 398              		.loc 1 153 0
 399 0066 FFF7FEFF 		bl	get_start_celeb
ARM GAS  /var/folders/21/4q6hj_5j77l1y0kst8hx_6f00000gn/T//ccRhsOW8.s 			page 8


 400              	.LVL37:
 401 006a 08B1     		cbz	r0, .L27
 402              		.loc 1 153 0 is_stmt 0 discriminator 1
 403 006c 3B78     		ldrb	r3, [r7]	@ zero_extendqisi2
 404 006e 33B3     		cbz	r3, .L41
 405              	.L27:
 406              	.LVL38:
 407              	.LBB84:
 408              	.LBB80:
 409              	.LBB75:
 410              	.LBB74:
 411              	.LBB73:
 412              	.LBB72:
 413              	.LBB71:
 414              		.loc 3 546 0 is_stmt 1
 415              		.syntax unified
 416              	@ 546 "../../lib/e-puck2_main-processor/ChibiOS//os/ext/CMSIS/include/core_cmFunc.h" 1
 417 0070 86F31188 		MSR basepri, r6
 418              	@ 0 "" 2
 419              	.LVL39:
 420              		.thumb
 421              		.syntax unified
 422              	.LBE71:
 423              	.LBE72:
 424              	.LBE73:
 425              		.loc 2 349 0
 426 0074 FFF7FEFF 		bl	_stats_start_measure_crit_thd
 427              	.LVL40:
 428              		.loc 2 350 0
 429 0078 FFF7FEFF 		bl	_dbg_check_lock
 430              	.LVL41:
 431              	.LBE74:
 432              	.LBE75:
 433              	.LBB76:
 434              	.LBB77:
 435              		.file 4 "../../lib/e-puck2_main-processor/ChibiOS//os/rt/include/chvt.h"
 436              		.loc 4 231 0
 437 007c AC6A     		ldr	r4, [r5, #40]
 438              	.LBE77:
 439              	.LBE76:
 440              	.LBB78:
 441              	.LBB65:
 442              		.loc 2 360 0
 443 007e FFF7FEFF 		bl	_dbg_check_unlock
 444              	.LVL42:
 445              		.loc 2 361 0
 446 0082 FFF7FEFF 		bl	_stats_stop_measure_crit_thd
 447              	.LVL43:
 448              		.loc 2 367 0
 449 0086 2B68     		ldr	r3, [r5]
 450 0088 AB42     		cmp	r3, r5
 451 008a 07D0     		beq	.L28
 452 008c AA69     		ldr	r2, [r5, #24]
 453 008e 9B68     		ldr	r3, [r3, #8]
 454 0090 9268     		ldr	r2, [r2, #8]
 455 0092 9A42     		cmp	r2, r3
 456 0094 02D2     		bcs	.L28
ARM GAS  /var/folders/21/4q6hj_5j77l1y0kst8hx_6f00000gn/T//ccRhsOW8.s 			page 9


 457 0096 4046     		mov	r0, r8
 458 0098 FFF7FEFF 		bl	chSysHalt
 459              	.LVL44:
 460              	.L28:
 461              	.LBB62:
 462              	.LBB63:
 463              	.LBB64:
 464              		.loc 3 546 0
 465 009c 0023     		movs	r3, #0
 466              		.syntax unified
 467              	@ 546 "../../lib/e-puck2_main-processor/ChibiOS//os/ext/CMSIS/include/core_cmFunc.h" 1
 468 009e 83F31188 		MSR basepri, r3
 469              	@ 0 "" 2
 470              	.LVL45:
 471              		.thumb
 472              		.syntax unified
 473              	.LBE64:
 474              	.LBE63:
 475              	.LBE62:
 476              	.LBE65:
 477              	.LBE78:
 478              	.LBE80:
 479              	.LBE84:
 480              		.loc 1 156 0
 481 00a2 FFF7FEFF 		bl	get_time_start
 482              	.LVL46:
 483 00a6 47F23053 		movw	r3, #30000
 484 00aa 201A     		subs	r0, r4, r0
 485 00ac 9842     		cmp	r0, r3
 486 00ae D6D9     		bls	.L30
 487              		.loc 1 156 0 is_stmt 0 discriminator 1
 488 00b0 FFF7FEFF 		bl	get_start_detected
 489              	.LVL47:
 490 00b4 0028     		cmp	r0, #0
 491 00b6 D2D0     		beq	.L30
 492              		.loc 1 157 0 is_stmt 1
 493 00b8 FFF7FEFF 		bl	game_over
 494              	.LVL48:
 495 00bc CFE7     		b	.L30
 496              	.L41:
 497              		.loc 1 154 0
 498 00be 4846     		mov	r0, r9
 499 00c0 FFF7FEFF 		bl	celebrate
 500              	.LVL49:
 501 00c4 D4E7     		b	.L27
 502              	.L43:
 503 00c6 00BF     		.align	2
 504              	.L42:
 505 00c8 00000000 		.word	__stack_chk_guard
 506 00cc 00000000 		.word	.LANCHOR0
 507 00d0 00000000 		.word	ch
 508 00d4 00000000 		.word	.LANCHOR1
 509 00d8 00000000 		.word	SD3
 510 00dc 00000000 		.word	.LANCHOR2
 511 00e0 00000000 		.word	.LANCHOR3
 512 00e4 00000000 		.word	.LANCHOR4
 513 00e8 00000000 		.word	processAudioData
ARM GAS  /var/folders/21/4q6hj_5j77l1y0kst8hx_6f00000gn/T//ccRhsOW8.s 			page 10


 514 00ec 00000000 		.word	.LANCHOR5
 515 00f0 00000000 		.word	.LANCHOR6
 516              		.cfi_endproc
 517              	.LFE296:
 518              		.size	main, .-main
 519              		.section	.text.get_fail_to_score,"ax",%progbits
 520              		.align	1
 521              		.p2align 4,,15
 522              		.global	get_fail_to_score
 523              		.syntax unified
 524              		.thumb
 525              		.thumb_func
 526              		.fpu fpv4-sp-d16
 527              		.type	get_fail_to_score, %function
 528              	get_fail_to_score:
 529              	.LFB297:
 530              		.loc 1 165 0
 531              		.cfi_startproc
 532              		@ args = 0, pretend = 0, frame = 8
 533              		@ frame_needed = 0, uses_anonymous_args = 0
 534 0000 00B5     		push	{lr}
 535              		.cfi_def_cfa_offset 4
 536              		.cfi_offset 14, -4
 537 0002 074B     		ldr	r3, .L48
 538              		.loc 1 166 0
 539 0004 0749     		ldr	r1, .L48+4
 540              		.loc 1 165 0
 541 0006 1A68     		ldr	r2, [r3]
 542              		.loc 1 167 0
 543 0008 0878     		ldrb	r0, [r1]	@ zero_extendqisi2
 544              		.loc 1 165 0
 545 000a 83B0     		sub	sp, sp, #12
 546              		.cfi_def_cfa_offset 16
 547              		.loc 1 165 0
 548 000c 0192     		str	r2, [sp, #4]
 549              		.loc 1 167 0
 550 000e 019A     		ldr	r2, [sp, #4]
 551 0010 1B68     		ldr	r3, [r3]
 552 0012 9A42     		cmp	r2, r3
 553 0014 02D1     		bne	.L47
 554 0016 03B0     		add	sp, sp, #12
 555              		.cfi_remember_state
 556              		.cfi_def_cfa_offset 4
 557              		@ sp needed
 558 0018 5DF804FB 		ldr	pc, [sp], #4
 559              	.L47:
 560              		.cfi_restore_state
 561 001c FFF7FEFF 		bl	__stack_chk_fail
 562              	.LVL50:
 563              	.L49:
 564              		.align	2
 565              	.L48:
 566 0020 00000000 		.word	__stack_chk_guard
 567 0024 00000000 		.word	.LANCHOR0
 568              		.cfi_endproc
 569              	.LFE297:
 570              		.size	get_fail_to_score, .-get_fail_to_score
ARM GAS  /var/folders/21/4q6hj_5j77l1y0kst8hx_6f00000gn/T//ccRhsOW8.s 			page 11


 571              		.section	.text.set_fail_to_score,"ax",%progbits
 572              		.align	1
 573              		.p2align 4,,15
 574              		.global	set_fail_to_score
 575              		.syntax unified
 576              		.thumb
 577              		.thumb_func
 578              		.fpu fpv4-sp-d16
 579              		.type	set_fail_to_score, %function
 580              	set_fail_to_score:
 581              	.LFB298:
 582              		.loc 1 175 0
 583              		.cfi_startproc
 584              		@ args = 0, pretend = 0, frame = 8
 585              		@ frame_needed = 0, uses_anonymous_args = 0
 586              	.LVL51:
 587 0000 00B5     		push	{lr}
 588              		.cfi_def_cfa_offset 4
 589              		.cfi_offset 14, -4
 590 0002 074B     		ldr	r3, .L54
 591              		.loc 1 176 0
 592 0004 0749     		ldr	r1, .L54+4
 593              		.loc 1 175 0
 594 0006 1A68     		ldr	r2, [r3]
 595              		.loc 1 176 0
 596 0008 0870     		strb	r0, [r1]
 597              		.loc 1 175 0
 598 000a 83B0     		sub	sp, sp, #12
 599              		.cfi_def_cfa_offset 16
 600              		.loc 1 175 0
 601 000c 0192     		str	r2, [sp, #4]
 602              		.loc 1 177 0
 603 000e 019A     		ldr	r2, [sp, #4]
 604 0010 1B68     		ldr	r3, [r3]
 605 0012 9A42     		cmp	r2, r3
 606 0014 02D1     		bne	.L53
 607 0016 03B0     		add	sp, sp, #12
 608              		.cfi_remember_state
 609              		.cfi_def_cfa_offset 4
 610              		@ sp needed
 611 0018 5DF804FB 		ldr	pc, [sp], #4
 612              	.L53:
 613              		.cfi_restore_state
 614 001c FFF7FEFF 		bl	__stack_chk_fail
 615              	.LVL52:
 616              	.L55:
 617              		.align	2
 618              	.L54:
 619 0020 00000000 		.word	__stack_chk_guard
 620 0024 00000000 		.word	.LANCHOR0
 621              		.cfi_endproc
 622              	.LFE298:
 623              		.size	set_fail_to_score, .-set_fail_to_score
 624              		.section	.text.__stack_chk_fail,"ax",%progbits
 625              		.align	1
 626              		.p2align 4,,15
 627              		.global	__stack_chk_fail
ARM GAS  /var/folders/21/4q6hj_5j77l1y0kst8hx_6f00000gn/T//ccRhsOW8.s 			page 12


 628              		.syntax unified
 629              		.thumb
 630              		.thumb_func
 631              		.fpu fpv4-sp-d16
 632              		.type	__stack_chk_fail, %function
 633              	__stack_chk_fail:
 634              	.LFB299:
 635              		.loc 1 182 0
 636              		.cfi_startproc
 637              		@ args = 0, pretend = 0, frame = 8
 638              		@ frame_needed = 0, uses_anonymous_args = 0
 639 0000 00B5     		push	{lr}
 640              		.cfi_def_cfa_offset 4
 641              		.cfi_offset 14, -4
 642 0002 084B     		ldr	r3, .L61
 643 0004 83B0     		sub	sp, sp, #12
 644              		.cfi_def_cfa_offset 16
 645              		.loc 1 182 0
 646 0006 1A68     		ldr	r2, [r3]
 647 0008 0192     		str	r2, [sp, #4]
 648              		.loc 1 183 0
 649 000a 019A     		ldr	r2, [sp, #4]
 650 000c 1B68     		ldr	r3, [r3]
 651 000e 9A42     		cmp	r2, r3
 652 0010 05D1     		bne	.L60
 653 0012 0548     		ldr	r0, .L61+4
 654              		.loc 1 184 0
 655 0014 03B0     		add	sp, sp, #12
 656              		.cfi_remember_state
 657              		.cfi_def_cfa_offset 4
 658              		@ sp needed
 659 0016 5DF804EB 		ldr	lr, [sp], #4
 660              		.cfi_restore 14
 661              		.cfi_def_cfa_offset 0
 662              		.loc 1 183 0
 663 001a FFF7FEBF 		b	chSysHalt
 664              	.LVL53:
 665              	.L60:
 666              		.cfi_restore_state
 667 001e FFF7FEFF 		bl	__stack_chk_fail
 668              	.LVL54:
 669              	.L62:
 670 0022 00BF     		.align	2
 671              	.L61:
 672 0024 00000000 		.word	__stack_chk_guard
 673 0028 00000000 		.word	.LC0
 674              		.cfi_endproc
 675              	.LFE299:
 676              		.size	__stack_chk_fail, .-__stack_chk_fail
 677              		.global	__stack_chk_guard
 678              		.global	bus_condvar
 679              		.global	bus_lock
 680              		.global	bus
 681              		.section	.bss.bus,"aw",%nobits
 682              		.align	2
 683              		.set	.LANCHOR4,. + 0
 684              		.type	bus, %object
ARM GAS  /var/folders/21/4q6hj_5j77l1y0kst8hx_6f00000gn/T//ccRhsOW8.s 			page 13


 685              		.size	bus, 12
 686              	bus:
 687 0000 00000000 		.space	12
 687      00000000 
 687      00000000 
 688              		.section	.bss.fail_to_score,"aw",%nobits
 689              		.set	.LANCHOR0,. + 0
 690              		.type	fail_to_score, %object
 691              		.size	fail_to_score, 1
 692              	fail_to_score:
 693 0000 00       		.space	1
 694              		.section	.bss.nb_goals.15660,"aw",%nobits
 695              		.set	.LANCHOR5,. + 0
 696              		.type	nb_goals.15660, %object
 697              		.size	nb_goals.15660, 1
 698              	nb_goals.15660:
 699 0000 00       		.space	1
 700              		.section	.data.__stack_chk_guard,"aw",%progbits
 701              		.align	2
 702              		.type	__stack_chk_guard, %object
 703              		.size	__stack_chk_guard, 4
 704              	__stack_chk_guard:
 705 0000 96E3DEE2 		.word	-488709226
 706              		.section	.data.bus_condvar,"aw",%progbits
 707              		.align	2
 708              		.set	.LANCHOR2,. + 0
 709              		.type	bus_condvar, %object
 710              		.size	bus_condvar, 8
 711              	bus_condvar:
 712 0000 00000000 		.word	bus_condvar
 713 0004 00000000 		.word	bus_condvar
 714              		.section	.data.bus_lock,"aw",%progbits
 715              		.align	2
 716              		.set	.LANCHOR3,. + 0
 717              		.type	bus_lock, %object
 718              		.size	bus_lock, 20
 719              	bus_lock:
 720 0000 00000000 		.word	bus_lock
 721 0004 00000000 		.word	bus_lock
 722 0008 00000000 		.word	0
 723 000c 00000000 		.word	0
 724 0010 00000000 		.word	0
 725              		.section	.data.ser_cfg.15645,"aw",%progbits
 726              		.align	2
 727              		.set	.LANCHOR1,. + 0
 728              		.type	ser_cfg.15645, %object
 729              		.size	ser_cfg.15645, 12
 730              	ser_cfg.15645:
 731 0000 00C20100 		.word	115200
 732 0004 0000     		.short	0
 733 0006 0000     		.short	0
 734 0008 0000     		.short	0
 735 000a 0000     		.space	2
 736              		.section	.rodata.__func__.8784,"a",%progbits
 737              		.align	2
 738              		.set	.LANCHOR6,. + 0
 739              		.type	__func__.8784, %object
ARM GAS  /var/folders/21/4q6hj_5j77l1y0kst8hx_6f00000gn/T//ccRhsOW8.s 			page 14


 740              		.size	__func__.8784, 12
 741              	__func__.8784:
 742 0000 63685379 		.ascii	"chSysUnlock\000"
 742      73556E6C 
 742      6F636B00 
 743              		.section	.rodata.__stack_chk_fail.str1.4,"aMS",%progbits,1
 744              		.align	2
 745              	.LC0:
 746 0000 53746163 		.ascii	"Stack smashing detected\000"
 746      6B20736D 
 746      61736869 
 746      6E672064 
 746      65746563 
 747              		.text
 748              	.Letext0:
 749              		.file 5 "/Applications/Eclipse_e-puck2.app/Contents/Eclipse_e-puck2/Tools/gcc-arm-none-eabi-7-2017
 750              		.file 6 "/Applications/Eclipse_e-puck2.app/Contents/Eclipse_e-puck2/Tools/gcc-arm-none-eabi-7-2017
 751              		.file 7 "/Applications/Eclipse_e-puck2.app/Contents/Eclipse_e-puck2/Tools/gcc-arm-none-eabi-7-2017
 752              		.file 8 "/Applications/Eclipse_e-puck2.app/Contents/Eclipse_e-puck2/Tools/gcc-arm-none-eabi-7-2017
 753              		.file 9 "/Applications/Eclipse_e-puck2.app/Contents/Eclipse_e-puck2/Tools/gcc-arm-none-eabi-7-2017
 754              		.file 10 "/Applications/Eclipse_e-puck2.app/Contents/Eclipse_e-puck2/Tools/gcc-arm-none-eabi-7-201
 755              		.file 11 "/Applications/Eclipse_e-puck2.app/Contents/Eclipse_e-puck2/Tools/gcc-arm-none-eabi-7-201
 756              		.file 12 "../../lib/e-puck2_main-processor/ChibiOS//os/rt/ports/ARMCMx/compilers/GCC/chtypes.h"
 757              		.file 13 "../../lib/e-puck2_main-processor/ChibiOS//os/rt/include/chsystypes.h"
 758              		.file 14 "../../lib/e-puck2_main-processor/ChibiOS//os/rt/include/chschd.h"
 759              		.file 15 "../../lib/e-puck2_main-processor/ChibiOS//os/ext/CMSIS/include/core_cm4.h"
 760              		.file 16 "../../lib/e-puck2_main-processor/ChibiOS//os/ext/CMSIS/ST/system_stm32f4xx.h"
 761              		.file 17 "../../lib/e-puck2_main-processor/ChibiOS//os/ext/CMSIS/ST/stm32f407xx.h"
 762              		.file 18 "../../lib/e-puck2_main-processor/ChibiOS//os/rt/ports/ARMCMx/chcore.h"
 763              		.file 19 "../../lib/e-puck2_main-processor/ChibiOS//os/rt/ports/ARMCMx/chcore_v7m.h"
 764              		.file 20 "../../lib/e-puck2_main-processor/ChibiOS//os/rt/include/chdebug.h"
 765              		.file 21 "../../lib/e-puck2_main-processor/ChibiOS//os/rt/include/chtm.h"
 766              		.file 22 "../../lib/e-puck2_main-processor/ChibiOS//os/rt/include/chstats.h"
 767              		.file 23 "../../lib/e-puck2_main-processor/ChibiOS//os/rt/include/chsem.h"
 768              		.file 24 "../../lib/e-puck2_main-processor/ChibiOS//os/rt/include/chmtx.h"
 769              		.file 25 "../../lib/e-puck2_main-processor/ChibiOS//os/rt/include/chregistry.h"
 770              		.file 26 "../../lib/e-puck2_main-processor/ChibiOS//os/rt/include/chcond.h"
 771              		.file 27 "../../lib/e-puck2_main-processor/ChibiOS//os/rt/include/chevents.h"
 772              		.file 28 "../../lib/e-puck2_main-processor/ChibiOS//os/rt/include/chqueues.h"
 773              		.file 29 "../../lib/e-puck2_main-processor/ChibiOS//os/hal/ports/STM32/STM32F4xx/stm32_dma.h"
 774              		.file 30 "../../lib/e-puck2_main-processor/ChibiOS//os/hal/include/hal_ioblock.h"
 775              		.file 31 "../../lib/e-puck2_main-processor/ChibiOS//os/hal/ports/STM32/LLD/GPIOv2/pal_lld.h"
 776              		.file 32 "../../lib/e-puck2_main-processor/ChibiOS//os/hal/include/adc.h"
 777              		.file 33 "../../lib/e-puck2_main-processor/ChibiOS//os/hal/ports/STM32/STM32F4xx/adc_lld.h"
 778              		.file 34 "../../lib/e-puck2_main-processor/ChibiOS//os/hal/include/can.h"
 779              		.file 35 "../../lib/e-puck2_main-processor/ChibiOS//os/hal/ports/STM32/LLD/can_lld.h"
 780              		.file 36 "../../lib/e-puck2_main-processor/ChibiOS//os/hal/include/dac.h"
 781              		.file 37 "../../lib/e-puck2_main-processor/ChibiOS//os/hal/ports/STM32/LLD/DACv1/dac_lld.h"
 782              		.file 38 "../../lib/e-puck2_main-processor/ChibiOS//os/hal/include/ext.h"
 783              		.file 39 "../../lib/e-puck2_main-processor/ChibiOS//os/hal/ports/STM32/LLD/ext_lld.h"
 784              		.file 40 "../../lib/e-puck2_main-processor/ChibiOS//os/hal/include/gpt.h"
 785              		.file 41 "../../lib/e-puck2_main-processor/ChibiOS//os/hal/ports/STM32/LLD/TIMv1/gpt_lld.h"
 786              		.file 42 "../../lib/e-puck2_main-processor/ChibiOS//os/hal/ports/STM32/LLD/TIMv1/stm32_tim.h"
 787              		.file 43 "../../lib/e-puck2_main-processor/ChibiOS//os/hal/include/i2c.h"
 788              		.file 44 "../../lib/e-puck2_main-processor/ChibiOS//os/hal/ports/STM32/LLD/I2Cv1/i2c_lld.h"
 789              		.file 45 "../../lib/e-puck2_main-processor/ChibiOS//os/hal/include/i2s.h"
 790              		.file 46 "../../lib/e-puck2_main-processor/ChibiOS//os/hal/ports/STM32/LLD/SPIv1/i2s_lld.h"
ARM GAS  /var/folders/21/4q6hj_5j77l1y0kst8hx_6f00000gn/T//ccRhsOW8.s 			page 15


 791              		.file 47 "../../lib/e-puck2_main-processor/ChibiOS//os/hal/include/pwm.h"
 792              		.file 48 "../../lib/e-puck2_main-processor/ChibiOS//os/hal/ports/STM32/LLD/TIMv1/pwm_lld.h"
 793              		.file 49 "../../lib/e-puck2_main-processor/ChibiOS//os/hal/include/serial.h"
 794              		.file 50 "../../lib/e-puck2_main-processor/ChibiOS//os/hal/ports/STM32/LLD/USARTv1/serial_lld.h"
 795              		.file 51 "../../lib/e-puck2_main-processor/ChibiOS//os/hal/include/sdc.h"
 796              		.file 52 "../../lib/e-puck2_main-processor/ChibiOS//os/hal/ports/STM32/LLD/sdc_lld.h"
 797              		.file 53 "../../lib/e-puck2_main-processor/ChibiOS//os/hal/include/spi.h"
 798              		.file 54 "../../lib/e-puck2_main-processor/ChibiOS//os/hal/ports/STM32/LLD/SPIv1/spi_lld.h"
 799              		.file 55 "../../lib/e-puck2_main-processor/ChibiOS//os/hal/include/usb.h"
 800              		.file 56 "../../lib/e-puck2_main-processor/ChibiOS//os/hal/ports/STM32/LLD/OTGv1/usb_lld.h"
 801              		.file 57 "../../lib/e-puck2_main-processor/ChibiOS//os/hal/ports/STM32/LLD/OTGv1/stm32_otg.h"
 802              		.file 58 "../../lib/e-puck2_main-processor/ChibiOS//os/hal/include/serial_usb.h"
 803              		.file 59 "../../lib/e-puck2_main-processor/src/usbcfg.h"
 804              		.file 60 "../../lib/e-puck2_main-processor/ChibiOS_ext/os/hal/include/../ports/STM32/STM32F4xx/dcm
 805              		.file 61 "/Applications/Eclipse_e-puck2.app/Contents/Eclipse_e-puck2/Tools/gcc-arm-none-eabi-7-201
 806              		.file 62 "../../lib/e-puck2_main-processor/src/msgbus/messagebus.h"
 807              		.file 63 "../../lib/e-puck2_main-processor/src/parameter/parameter.h"
 808              		.file 64 "./main.h"
 809              		.file 65 "../../lib/e-puck2_main-processor/src/audio/play_melody.h"
 810              		.file 66 "../../lib/e-puck2_main-processor/src/leds.h"
 811              		.file 67 "/Applications/Eclipse_e-puck2.app/Contents/Eclipse_e-puck2/Tools/gcc-arm-none-eabi-7-201
 812              		.file 68 "../../lib/e-puck2_main-processor/ChibiOS//os/hal/include/hal.h"
 813              		.file 69 "../../lib/e-puck2_main-processor/src/spi_comm.h"
 814              		.file 70 "../../lib/e-puck2_main-processor/src/motors.h"
 815              		.file 71 "../../lib/e-puck2_main-processor/src/sensors/proximity.h"
 816              		.file 72 "../../lib/e-puck2_main-processor/src/sensors/VL53L0X/VL53L0X.h"
 817              		.file 73 "../../lib/e-puck2_main-processor/src/audio/microphone.h"
 818              		.file 74 "search.h"
 819              		.file 75 "../../lib/e-puck2_main-processor/src/audio/audio_thread.h"
 820              		.file 76 "../../lib/e-puck2_main-processor/ChibiOS//os/rt/include/chthreads.h"
 821              		.file 77 "audio_processing.h"