ARM GAS  C:\Users\Acer\AppData\Local\Temp\ccpWL1Xq.s 			page 1


   1              		.cpu cortex-m4
   2              		.eabi_attribute 27, 1
   3              		.eabi_attribute 28, 1
   4              		.eabi_attribute 20, 1
   5              		.eabi_attribute 21, 1
   6              		.eabi_attribute 23, 3
   7              		.eabi_attribute 24, 1
   8              		.eabi_attribute 25, 1
   9              		.eabi_attribute 26, 1
  10              		.eabi_attribute 30, 2
  11              		.eabi_attribute 34, 1
  12              		.eabi_attribute 18, 4
  13              		.file	"search.c"
  14              		.text
  15              	.Ltext0:
  16              		.cfi_sections	.debug_frame
  17              		.section	.text.chprintf.constprop.0,"ax",%progbits
  18              		.align	1
  19              		.p2align 4,,15
  20              		.syntax unified
  21              		.thumb
  22              		.thumb_func
  23              		.fpu fpv4-sp-d16
  24              		.type	chprintf.constprop.0, %function
  25              	chprintf.constprop.0:
  26              	.LFB263:
  27              		.file 1 "../../lib/e-puck2_main-processor/ChibiOS//os/hal/lib/streams/chprintf.h"
  28              		.loc 1 69 0
  29              		.cfi_startproc
  30              		@ args = 4, pretend = 12, frame = 8
  31              		@ frame_needed = 0, uses_anonymous_args = 1
  32              	.LVL0:
  33 0000 0EB4     		push	{r1, r2, r3}
  34              		.cfi_def_cfa_offset 12
  35              		.cfi_offset 1, -12
  36              		.cfi_offset 2, -8
  37              		.cfi_offset 3, -4
  38 0002 10B5     		push	{r4, lr}
  39              		.cfi_def_cfa_offset 20
  40              		.cfi_offset 4, -20
  41              		.cfi_offset 14, -16
  42 0004 0A4C     		ldr	r4, .L6
  43              		.loc 1 74 0
  44 0006 0B49     		ldr	r1, .L6+4
  45              		.loc 1 69 0
  46 0008 2368     		ldr	r3, [r4]
  47              		.loc 1 74 0
  48 000a 0B48     		ldr	r0, .L6+8
  49              	.LVL1:
  50              		.loc 1 69 0
  51 000c 83B0     		sub	sp, sp, #12
  52              		.cfi_def_cfa_offset 32
  53              		.loc 1 69 0
  54 000e 0193     		str	r3, [sp, #4]
  55              	.LVL2:
  56              		.loc 1 73 0
  57 0010 06AB     		add	r3, sp, #24
ARM GAS  C:\Users\Acer\AppData\Local\Temp\ccpWL1Xq.s 			page 2


  58              		.loc 1 74 0
  59 0012 1A46     		mov	r2, r3
  60              		.loc 1 73 0
  61 0014 0093     		str	r3, [sp]
  62              		.loc 1 74 0
  63 0016 FFF7FEFF 		bl	chvprintf
  64              	.LVL3:
  65              		.loc 1 78 0
  66 001a 019A     		ldr	r2, [sp, #4]
  67 001c 2368     		ldr	r3, [r4]
  68 001e 9A42     		cmp	r2, r3
  69 0020 04D1     		bne	.L5
  70 0022 03B0     		add	sp, sp, #12
  71              		.cfi_remember_state
  72              		.cfi_def_cfa_offset 20
  73              		@ sp needed
  74 0024 BDE81040 		pop	{r4, lr}
  75              		.cfi_restore 14
  76              		.cfi_restore 4
  77              		.cfi_def_cfa_offset 12
  78 0028 03B0     		add	sp, sp, #12
  79              		.cfi_restore 3
  80              		.cfi_restore 2
  81              		.cfi_restore 1
  82              		.cfi_def_cfa_offset 0
  83 002a 7047     		bx	lr
  84              	.L5:
  85              		.cfi_restore_state
  86 002c FFF7FEFF 		bl	__stack_chk_fail
  87              	.LVL4:
  88              	.L7:
  89              		.align	2
  90              	.L6:
  91 0030 00000000 		.word	__stack_chk_guard
  92 0034 00000000 		.word	.LC0
  93 0038 00000000 		.word	SD3
  94              		.cfi_endproc
  95              	.LFE263:
  96              		.size	chprintf.constprop.0, .-chprintf.constprop.0
  97              		.section	.text.search_control,"ax",%progbits
  98              		.align	1
  99              		.p2align 4,,15
 100              		.global	search_control
 101              		.syntax unified
 102              		.thumb
 103              		.thumb_func
 104              		.fpu fpv4-sp-d16
 105              		.type	search_control, %function
 106              	search_control:
 107              	.LFB260:
 108              		.file 2 "search.c"
 109              		.loc 2 37 0
 110              		.cfi_startproc
 111              		@ args = 0, pretend = 0, frame = 8
 112              		@ frame_needed = 0, uses_anonymous_args = 0
 113              	.LVL5:
 114 0000 F0B5     		push	{r4, r5, r6, r7, lr}
ARM GAS  C:\Users\Acer\AppData\Local\Temp\ccpWL1Xq.s 			page 3


 115              		.cfi_def_cfa_offset 20
 116              		.cfi_offset 4, -20
 117              		.cfi_offset 5, -16
 118              		.cfi_offset 6, -12
 119              		.cfi_offset 7, -8
 120              		.cfi_offset 14, -4
 121 0002 2DED028B 		vpush.64	{d8}
 122              		.cfi_def_cfa_offset 28
 123              		.cfi_offset 80, -28
 124              		.cfi_offset 81, -24
 125 0006 3E4E     		ldr	r6, .L29
 126 0008 83B0     		sub	sp, sp, #12
 127              		.cfi_def_cfa_offset 40
 128              		.loc 2 37 0
 129 000a 0546     		mov	r5, r0
 130 000c 3368     		ldr	r3, [r6]
 131 000e 0193     		str	r3, [sp, #4]
 132              		.loc 2 39 0
 133 0010 FFF7FEFF 		bl	left_motor_get_pos
 134              	.LVL6:
 135              		.loc 2 40 0
 136 0014 2B78     		ldrb	r3, [r5]	@ zero_extendqisi2
 137 0016 092B     		cmp	r3, #9
 138              		.loc 2 39 0
 139 0018 0446     		mov	r4, r0
 140              	.LVL7:
 141              		.loc 2 40 0
 142 001a 13D9     		bls	.L26
 143              	.L9:
 144              		.loc 2 62 0
 145 001c 0020     		movs	r0, #0
 146              	.LVL8:
 147 001e FFF7FEFF 		bl	get_calibrated_prox
 148              	.LVL9:
 149 0022 B0F5C87F 		cmp	r0, #400
 150 0026 3CDD     		ble	.L14
 151              	.L17:
 152              		.loc 2 63 0
 153 0028 2B78     		ldrb	r3, [r5]	@ zero_extendqisi2
 154 002a 0133     		adds	r3, r3, #1
 155 002c DBB2     		uxtb	r3, r3
 156              		.loc 2 64 0
 157 002e 092B     		cmp	r3, #9
 158              		.loc 2 63 0
 159 0030 2B70     		strb	r3, [r5]
 160              		.loc 2 64 0
 161 0032 3FD8     		bhi	.L27
 162              	.LVL10:
 163              	.L8:
 164              		.loc 2 81 0
 165 0034 019A     		ldr	r2, [sp, #4]
 166 0036 3368     		ldr	r3, [r6]
 167 0038 9A42     		cmp	r2, r3
 168 003a 5FD1     		bne	.L28
 169 003c 03B0     		add	sp, sp, #12
 170              		.cfi_remember_state
 171              		.cfi_def_cfa_offset 28
ARM GAS  C:\Users\Acer\AppData\Local\Temp\ccpWL1Xq.s 			page 4


 172              		@ sp needed
 173 003e BDEC028B 		vldm	sp!, {d8}
 174              		.cfi_restore 80
 175              		.cfi_restore 81
 176              		.cfi_def_cfa_offset 20
 177 0042 F0BD     		pop	{r4, r5, r6, r7, pc}
 178              	.LVL11:
 179              	.L26:
 180              		.cfi_restore_state
 181              		.loc 2 43 0
 182 0044 0220     		movs	r0, #2
 183              	.LVL12:
 184 0046 FFF7FEFF 		bl	get_calibrated_prox
 185              	.LVL13:
 186 004a 6428     		cmp	r0, #100
 187 004c 19DC     		bgt	.L25
 188              		.loc 2 43 0 is_stmt 0 discriminator 1
 189 004e 0320     		movs	r0, #3
 190 0050 FFF7FEFF 		bl	get_calibrated_prox
 191              	.LVL14:
 192 0054 6428     		cmp	r0, #100
 193 0056 14DC     		bgt	.L25
 194              		.loc 2 49 0 is_stmt 1
 195 0058 0420     		movs	r0, #4
 196 005a FFF7FEFF 		bl	get_calibrated_prox
 197              	.LVL15:
 198 005e 6428     		cmp	r0, #100
 199 0060 0ADD     		ble	.L12
 200              	.L13:
 201              		.loc 2 50 0
 202 0062 2848     		ldr	r0, .L29+4
 203 0064 FFF7FEFF 		bl	left_motor_set_speed
 204              	.LVL16:
 205              		.loc 2 51 0
 206 0068 4FF4AF70 		mov	r0, #350
 207 006c FFF7FEFF 		bl	right_motor_set_speed
 208              	.LVL17:
 209              		.loc 2 52 0
 210 0070 FFF7FEFF 		bl	left_motor_get_pos
 211              	.LVL18:
 212 0074 0446     		mov	r4, r0
 213              	.LVL19:
 214 0076 D1E7     		b	.L9
 215              	.LVL20:
 216              	.L12:
 217              		.loc 2 49 0 discriminator 1
 218 0078 0520     		movs	r0, #5
 219 007a FFF7FEFF 		bl	get_calibrated_prox
 220              	.LVL21:
 221 007e 6428     		cmp	r0, #100
 222 0080 EFDC     		bgt	.L13
 223              	.L25:
 224              		.loc 2 56 0
 225 0082 4FF4AF70 		mov	r0, #350
 226 0086 FFF7FEFF 		bl	left_motor_set_speed
 227              	.LVL22:
 228              		.loc 2 57 0
ARM GAS  C:\Users\Acer\AppData\Local\Temp\ccpWL1Xq.s 			page 5


 229 008a 1E48     		ldr	r0, .L29+4
 230 008c FFF7FEFF 		bl	right_motor_set_speed
 231              	.LVL23:
 232              		.loc 2 58 0
 233 0090 FFF7FEFF 		bl	left_motor_get_pos
 234              	.LVL24:
 235 0094 0446     		mov	r4, r0
 236              	.LVL25:
 237              		.loc 2 62 0
 238 0096 0020     		movs	r0, #0
 239              	.LVL26:
 240 0098 FFF7FEFF 		bl	get_calibrated_prox
 241              	.LVL27:
 242 009c B0F5C87F 		cmp	r0, #400
 243 00a0 C2DC     		bgt	.L17
 244              	.L14:
 245              		.loc 2 62 0 is_stmt 0 discriminator 1
 246 00a2 0720     		movs	r0, #7
 247 00a4 FFF7FEFF 		bl	get_calibrated_prox
 248              	.LVL28:
 249 00a8 B0F5C87F 		cmp	r0, #400
 250 00ac BCDC     		bgt	.L17
 251              		.loc 2 78 0 is_stmt 1
 252 00ae 0023     		movs	r3, #0
 253 00b0 2B70     		strb	r3, [r5]
 254              		.loc 2 81 0
 255 00b2 BFE7     		b	.L8
 256              	.L27:
 257              		.loc 2 67 0
 258 00b4 8120     		movs	r0, #129
 259 00b6 FFF7FEFF 		bl	left_motor_set_pos
 260              	.LVL29:
 261              		.loc 2 68 0
 262 00ba 8120     		movs	r0, #129
 263 00bc FFF7FEFF 		bl	right_motor_set_pos
 264              	.LVL30:
 265              		.loc 2 69 0
 266 00c0 4FF4AF70 		mov	r0, #350
 267 00c4 FFF7FEFF 		bl	left_motor_set_speed
 268              	.LVL31:
 269              		.loc 2 70 0
 270 00c8 0E48     		ldr	r0, .L29+4
 271              		.loc 2 72 0
 272 00ca 9FED0F8A 		vldr.32	s16, .L29+8
 273              		.loc 2 73 0
 274 00ce 0F4F     		ldr	r7, .L29+12
 275 00d0 0F4D     		ldr	r5, .L29+16
 276              	.LVL32:
 277              		.loc 2 70 0
 278 00d2 FFF7FEFF 		bl	right_motor_set_speed
 279              	.LVL33:
 280              		.loc 2 72 0
 281 00d6 04E0     		b	.L20
 282              	.L21:
 283              		.loc 2 73 0
 284 00d8 2246     		mov	r2, r4
 285 00da 3946     		mov	r1, r7
ARM GAS  C:\Users\Acer\AppData\Local\Temp\ccpWL1Xq.s 			page 6


 286 00dc 2846     		mov	r0, r5
 287 00de FFF7FEFF 		bl	chprintf.constprop.0
 288              	.LVL34:
 289              	.L20:
 290              		.loc 2 72 0
 291 00e2 FFF7FEFF 		bl	left_motor_get_pos
 292              	.LVL35:
 293 00e6 001B     		subs	r0, r0, r4
 294 00e8 07EE900A 		vmov	s15, r0	@ int
 295 00ec F8EEE77A 		vcvt.f32.s32	s15, s15
 296 00f0 F4EEC87A 		vcmpe.f32	s15, s16
 297 00f4 F1EE10FA 		vmrs	APSR_nzcv, FPSCR
 298 00f8 EED9     		bls	.L21
 299 00fa 9BE7     		b	.L8
 300              	.L28:
 301              		.loc 2 81 0
 302 00fc FFF7FEFF 		bl	__stack_chk_fail
 303              	.LVL36:
 304              	.L30:
 305              		.align	2
 306              	.L29:
 307 0100 00000000 		.word	__stack_chk_guard
 308 0104 A2FEFFFF 		.word	-350
 309 0108 E2490143 		.word	1124157922
 310 010c 00000000 		.word	.LC0
 311 0110 00000000 		.word	SD3
 312              		.cfi_endproc
 313              	.LFE260:
 314              		.size	search_control, .-search_control
 315              		.section	.text.SEARCHThd,"ax",%progbits
 316              		.align	1
 317              		.p2align 4,,15
 318              		.syntax unified
 319              		.thumb
 320              		.thumb_func
 321              		.fpu fpv4-sp-d16
 322              		.type	SEARCHThd, %function
 323              	SEARCHThd:
 324              	.LFB261:
 325              		.loc 2 87 0
 326              		.cfi_startproc
 327              		@ args = 0, pretend = 0, frame = 8
 328              		@ frame_needed = 0, uses_anonymous_args = 0
 329              	.LVL37:
 330 0000 2DE9F04F 		push	{r4, r5, r6, r7, r8, r9, r10, fp, lr}
 331              		.cfi_def_cfa_offset 36
 332              		.cfi_offset 4, -36
 333              		.cfi_offset 5, -32
 334              		.cfi_offset 6, -28
 335              		.cfi_offset 7, -24
 336              		.cfi_offset 8, -20
 337              		.cfi_offset 9, -16
 338              		.cfi_offset 10, -12
 339              		.cfi_offset 11, -8
 340              		.cfi_offset 14, -4
 341              	.LBB10:
 342              	.LBB11:
ARM GAS  C:\Users\Acer\AppData\Local\Temp\ccpWL1Xq.s 			page 7


 343              		.file 3 "../../lib/e-puck2_main-processor/ChibiOS//os/rt/include/chregistry.h"
 344              		.loc 3 135 0
 345 0004 384D     		ldr	r5, .L57
 346 0006 394A     		ldr	r2, .L57+4
 347 0008 AB69     		ldr	r3, [r5, #24]
 348              	.LBE11:
 349              	.LBE10:
 350              		.loc 2 87 0
 351 000a DFF8E880 		ldr	r8, .L57+12
 352              	.LBB13:
 353              	.LBB12:
 354              		.loc 3 135 0
 355 000e 9A61     		str	r2, [r3, #24]
 356              	.LBE12:
 357              	.LBE13:
 358              	.LBB14:
 359              	.LBB15:
 360              		.file 4 "../../lib/e-puck2_main-processor/ChibiOS//os/rt/include/chthreads.h"
 361              		.loc 4 233 0
 362 0010 AA69     		ldr	r2, [r5, #24]
 363              	.LBE15:
 364              	.LBE14:
 365              		.loc 2 87 0
 366 0012 D8F80030 		ldr	r3, [r8]
 367              		.loc 2 95 0
 368 0016 92F82140 		ldrb	r4, [r2, #33]	@ zero_extendqisi2
 369              		.loc 2 87 0
 370 001a 83B0     		sub	sp, sp, #12
 371              		.cfi_def_cfa_offset 48
 372              		.loc 2 95 0
 373 001c 14F00404 		ands	r4, r4, #4
 374              		.loc 2 87 0
 375 0020 0193     		str	r3, [sp, #4]
 376              	.LVL38:
 377              		.loc 2 95 0
 378 0022 57D1     		bne	.L31
 379              		.loc 2 109 0
 380 0024 324F     		ldr	r7, .L57+8
 381              		.loc 2 110 0
 382 0026 DFF8D0A0 		ldr	r10, .L57+16
 383              		.loc 2 119 0
 384 002a DFF8D090 		ldr	r9, .L57+20
 385              		.loc 2 91 0
 386 002e 0126     		movs	r6, #1
 387 0030 11E0     		b	.L32
 388              	.LVL39:
 389              	.L54:
 390              		.loc 2 98 0
 391 0032 86BB     		cbnz	r6, .L34
 392              		.loc 2 99 0
 393 0034 3046     		mov	r0, r6
 394 0036 FFF7FEFF 		bl	set_start_detected
 395              	.LVL40:
 396              		.loc 2 100 0
 397 003a 3446     		mov	r4, r6
 398              		.loc 2 107 0
 399 003c FFF7FEFF 		bl	VL53L0X_get_dist_mm
ARM GAS  C:\Users\Acer\AppData\Local\Temp\ccpWL1Xq.s 			page 8


 400              	.LVL41:
 401              	.L35:
 402              		.loc 2 117 0
 403 0040 FFF7FEFF 		bl	get_start_celeb
 404              	.LVL42:
 405 0044 F0B9     		cbnz	r0, .L53
 406              	.LVL43:
 407              	.L38:
 408              		.loc 2 122 0
 409 0046 6420     		movs	r0, #100
 410 0048 FFF7FEFF 		bl	chThdSleep
 411              	.LVL44:
 412              	.LBB17:
 413              	.LBB16:
 414              		.loc 4 233 0
 415 004c AB69     		ldr	r3, [r5, #24]
 416              	.LBE16:
 417              	.LBE17:
 418              		.loc 2 95 0
 419 004e 93F82130 		ldrb	r3, [r3, #33]	@ zero_extendqisi2
 420 0052 5B07     		lsls	r3, r3, #29
 421 0054 3ED4     		bmi	.L31
 422              	.LVL45:
 423              	.L32:
 424              		.loc 2 95 0 is_stmt 0 discriminator 1
 425 0056 FFF7FEFF 		bl	get_fail_to_score
 426              	.LVL46:
 427 005a 0028     		cmp	r0, #0
 428 005c 3AD1     		bne	.L31
 429              		.loc 2 97 0 is_stmt 1
 430 005e FFF7FEFF 		bl	get_start_detected
 431              	.LVL47:
 432 0062 0028     		cmp	r0, #0
 433 0064 E5D1     		bne	.L54
 434              		.loc 2 107 0
 435 0066 FFF7FEFF 		bl	VL53L0X_get_dist_mm
 436              	.LVL48:
 437              		.loc 2 109 0
 438 006a B0F5FA7F 		cmp	r0, #500
 439 006e E7D2     		bcs	.L35
 440              		.loc 2 109 0 is_stmt 0 discriminator 1
 441 0070 002C     		cmp	r4, #0
 442 0072 E5D0     		beq	.L35
 443              		.loc 2 109 0 discriminator 2
 444 0074 3B78     		ldrb	r3, [r7]	@ zero_extendqisi2
 445 0076 092B     		cmp	r3, #9
 446 0078 18D9     		bls	.L55
 447              	.LVL49:
 448              	.L51:
 449              		.loc 2 113 0 is_stmt 1
 450 007a 0124     		movs	r4, #1
 451              		.loc 2 117 0
 452 007c FFF7FEFF 		bl	get_start_celeb
 453              	.LVL50:
 454 0080 0028     		cmp	r0, #0
 455 0082 E0D0     		beq	.L38
 456              	.L53:
ARM GAS  C:\Users\Acer\AppData\Local\Temp\ccpWL1Xq.s 			page 9


 457              		.loc 2 118 0
 458 0084 40F2EE20 		movw	r0, #750
 459 0088 FFF7FEFF 		bl	left_motor_set_speed
 460              	.LVL51:
 461              		.loc 2 119 0
 462 008c 4846     		mov	r0, r9
 463 008e FFF7FEFF 		bl	right_motor_set_speed
 464              	.LVL52:
 465              		.loc 2 120 0
 466 0092 0026     		movs	r6, #0
 467 0094 D7E7     		b	.L38
 468              	.LVL53:
 469              	.L34:
 470              		.loc 2 103 0
 471 0096 3846     		mov	r0, r7
 472 0098 FFF7FEFF 		bl	search_control
 473              	.LVL54:
 474              		.loc 2 107 0
 475 009c FFF7FEFF 		bl	VL53L0X_get_dist_mm
 476              	.LVL55:
 477              		.loc 2 109 0
 478 00a0 B0F5FA7F 		cmp	r0, #500
 479 00a4 E9D2     		bcs	.L51
 480 00a6 3B78     		ldrb	r3, [r7]	@ zero_extendqisi2
 481 00a8 092B     		cmp	r3, #9
 482 00aa E6D8     		bhi	.L51
 483              	.LVL56:
 484              	.L55:
 485              		.loc 2 110 0
 486 00ac 4FF47A7B 		mov	fp, #1000
 487 00b0 0BFB00F4 		mul	r4, fp, r0
 488 00b4 AAFB0434 		umull	r3, r4, r10, r4
 489 00b8 E409     		lsrs	r4, r4, #7
 490 00ba 2046     		mov	r0, r4
 491              	.LVL57:
 492 00bc FFF7FEFF 		bl	left_motor_set_pos
 493              	.LVL58:
 494              		.loc 2 111 0
 495 00c0 2046     		mov	r0, r4
 496 00c2 FFF7FEFF 		bl	right_motor_set_pos
 497              	.LVL59:
 498              		.loc 2 112 0
 499 00c6 5846     		mov	r0, fp
 500 00c8 FFF7FEFF 		bl	left_motor_set_speed
 501              	.LVL60:
 502              		.loc 2 113 0
 503 00cc 5846     		mov	r0, fp
 504 00ce FFF7FEFF 		bl	right_motor_set_speed
 505              	.LVL61:
 506 00d2 D2E7     		b	.L51
 507              	.LVL62:
 508              	.L31:
 509              		.loc 2 124 0
 510 00d4 019A     		ldr	r2, [sp, #4]
 511 00d6 D8F80030 		ldr	r3, [r8]
 512 00da 9A42     		cmp	r2, r3
 513 00dc 02D1     		bne	.L56
ARM GAS  C:\Users\Acer\AppData\Local\Temp\ccpWL1Xq.s 			page 10


 514 00de 03B0     		add	sp, sp, #12
 515              		.cfi_remember_state
 516              		.cfi_def_cfa_offset 36
 517              		@ sp needed
 518 00e0 BDE8F08F 		pop	{r4, r5, r6, r7, r8, r9, r10, fp, pc}
 519              	.L56:
 520              		.cfi_restore_state
 521 00e4 FFF7FEFF 		bl	__stack_chk_fail
 522              	.LVL63:
 523              	.L58:
 524              		.align	2
 525              	.L57:
 526 00e8 00000000 		.word	ch
 527 00ec 00000000 		.word	.LC1
 528 00f0 00000000 		.word	.LANCHOR0
 529 00f4 00000000 		.word	__stack_chk_guard
 530 00f8 FDC00FFC 		.word	-66076419
 531 00fc 12FDFFFF 		.word	-750
 532              		.cfi_endproc
 533              	.LFE261:
 534              		.size	SEARCHThd, .-SEARCHThd
 535              		.section	.text.start_search,"ax",%progbits
 536              		.align	1
 537              		.p2align 4,,15
 538              		.global	start_search
 539              		.syntax unified
 540              		.thumb
 541              		.thumb_func
 542              		.fpu fpv4-sp-d16
 543              		.type	start_search, %function
 544              	start_search:
 545              	.LFB262:
 546              		.loc 2 128 0
 547              		.cfi_startproc
 548              		@ args = 0, pretend = 0, frame = 8
 549              		@ frame_needed = 0, uses_anonymous_args = 0
 550 0000 10B5     		push	{r4, lr}
 551              		.cfi_def_cfa_offset 8
 552              		.cfi_offset 4, -8
 553              		.cfi_offset 14, -4
 554 0002 0A4C     		ldr	r4, .L63
 555              		.loc 2 129 0
 556 0004 0A4B     		ldr	r3, .L63+4
 557              		.loc 2 128 0
 558 0006 2268     		ldr	r2, [r4]
 559              		.loc 2 129 0
 560 0008 0A48     		ldr	r0, .L63+8
 561              		.loc 2 128 0
 562 000a 84B0     		sub	sp, sp, #16
 563              		.cfi_def_cfa_offset 24
 564              		.loc 2 129 0
 565 000c 4FF45E71 		mov	r1, #888
 566              		.loc 2 128 0
 567 0010 0392     		str	r2, [sp, #12]
 568              		.loc 2 129 0
 569 0012 0022     		movs	r2, #0
 570 0014 0092     		str	r2, [sp]
ARM GAS  C:\Users\Acer\AppData\Local\Temp\ccpWL1Xq.s 			page 11


 571 0016 4022     		movs	r2, #64
 572 0018 FFF7FEFF 		bl	chThdCreateStatic
 573              	.LVL64:
 574              		.loc 2 134 0
 575 001c 039A     		ldr	r2, [sp, #12]
 576 001e 2368     		ldr	r3, [r4]
 577 0020 9A42     		cmp	r2, r3
 578 0022 01D1     		bne	.L62
 579 0024 04B0     		add	sp, sp, #16
 580              		.cfi_remember_state
 581              		.cfi_def_cfa_offset 8
 582              		@ sp needed
 583 0026 10BD     		pop	{r4, pc}
 584              	.L62:
 585              		.cfi_restore_state
 586 0028 FFF7FEFF 		bl	__stack_chk_fail
 587              	.LVL65:
 588              	.L64:
 589              		.align	2
 590              	.L63:
 591 002c 00000000 		.word	__stack_chk_guard
 592 0030 00000000 		.word	SEARCHThd
 593 0034 00000000 		.word	.LANCHOR1
 594              		.cfi_endproc
 595              	.LFE262:
 596              		.size	start_search, .-start_search
 597              		.section	.bss.val.12964,"aw",%nobits
 598              		.set	.LANCHOR0,. + 0
 599              		.type	val.12964, %object
 600              		.size	val.12964, 1
 601              	val.12964:
 602 0000 00       		.space	1
 603              		.section	.bss.waSEARCHThd,"aw",%nobits
 604              		.align	3
 605              		.set	.LANCHOR1,. + 0
 606              		.type	waSEARCHThd, %object
 607              		.size	waSEARCHThd, 888
 608              	waSEARCHThd:
 609 0000 00000000 		.space	888
 609      00000000 
 609      00000000 
 609      00000000 
 609      00000000 
 610              		.section	.rodata.SEARCHThd.str1.4,"aMS",%progbits,1
 611              		.align	2
 612              	.LC1:
 613 0000 53454152 		.ascii	"SEARCHThd\000"
 613      43485468 
 613      6400
 614              		.section	.rodata.chprintf.constprop.0.str1.4,"aMS",%progbits,1
 615              		.align	2
 616              	.LC0:
 617 0000 256900   		.ascii	"%i\000"
 618              		.text
 619              	.Letext0:
 620              		.file 5 "c:\\users\\acer\\desktop\\microinformatique-tp\\eclipse_e-puck2\\tools\\gcc-arm-none-eabi
 621              		.file 6 "c:\\users\\acer\\desktop\\microinformatique-tp\\eclipse_e-puck2\\tools\\gcc-arm-none-eabi
ARM GAS  C:\Users\Acer\AppData\Local\Temp\ccpWL1Xq.s 			page 12


 622              		.file 7 "c:\\users\\acer\\desktop\\microinformatique-tp\\eclipse_e-puck2\\tools\\gcc-arm-none-eabi
 623              		.file 8 "../../lib/e-puck2_main-processor/ChibiOS//os/rt/ports/ARMCMx/compilers/GCC/chtypes.h"
 624              		.file 9 "../../lib/e-puck2_main-processor/ChibiOS//os/rt/include/chsystypes.h"
 625              		.file 10 "../../lib/e-puck2_main-processor/ChibiOS//os/rt/include/chschd.h"
 626              		.file 11 "../../lib/e-puck2_main-processor/ChibiOS//os/ext/CMSIS/include/core_cm4.h"
 627              		.file 12 "../../lib/e-puck2_main-processor/ChibiOS//os/ext/CMSIS/ST/system_stm32f4xx.h"
 628              		.file 13 "../../lib/e-puck2_main-processor/ChibiOS//os/ext/CMSIS/ST/stm32f407xx.h"
 629              		.file 14 "../../lib/e-puck2_main-processor/ChibiOS//os/rt/ports/ARMCMx/chcore.h"
 630              		.file 15 "../../lib/e-puck2_main-processor/ChibiOS//os/rt/ports/ARMCMx/chcore_v7m.h"
 631              		.file 16 "../../lib/e-puck2_main-processor/ChibiOS//os/rt/include/chdebug.h"
 632              		.file 17 "../../lib/e-puck2_main-processor/ChibiOS//os/rt/include/chtm.h"
 633              		.file 18 "../../lib/e-puck2_main-processor/ChibiOS//os/rt/include/chstats.h"
 634              		.file 19 "../../lib/e-puck2_main-processor/ChibiOS//os/rt/include/chsem.h"
 635              		.file 20 "../../lib/e-puck2_main-processor/ChibiOS//os/rt/include/chmtx.h"
 636              		.file 21 "../../lib/e-puck2_main-processor/ChibiOS//os/rt/include/chevents.h"
 637              		.file 22 "../../lib/e-puck2_main-processor/ChibiOS//os/rt/include/chqueues.h"
 638              		.file 23 "../../lib/e-puck2_main-processor/ChibiOS//os/rt/include/chstreams.h"
 639              		.file 24 "../../lib/e-puck2_main-processor/ChibiOS//os/hal/ports/STM32/STM32F4xx/stm32_dma.h"
 640              		.file 25 "../../lib/e-puck2_main-processor/ChibiOS//os/hal/include/hal_ioblock.h"
 641              		.file 26 "../../lib/e-puck2_main-processor/ChibiOS//os/hal/ports/STM32/LLD/GPIOv2/pal_lld.h"
 642              		.file 27 "../../lib/e-puck2_main-processor/ChibiOS//os/hal/include/adc.h"
 643              		.file 28 "../../lib/e-puck2_main-processor/ChibiOS//os/hal/ports/STM32/STM32F4xx/adc_lld.h"
 644              		.file 29 "../../lib/e-puck2_main-processor/ChibiOS//os/hal/include/can.h"
 645              		.file 30 "../../lib/e-puck2_main-processor/ChibiOS//os/hal/ports/STM32/LLD/can_lld.h"
 646              		.file 31 "../../lib/e-puck2_main-processor/ChibiOS//os/hal/include/dac.h"
 647              		.file 32 "../../lib/e-puck2_main-processor/ChibiOS//os/hal/ports/STM32/LLD/DACv1/dac_lld.h"
 648              		.file 33 "../../lib/e-puck2_main-processor/ChibiOS//os/hal/include/ext.h"
 649              		.file 34 "../../lib/e-puck2_main-processor/ChibiOS//os/hal/ports/STM32/LLD/ext_lld.h"
 650              		.file 35 "../../lib/e-puck2_main-processor/ChibiOS//os/hal/include/gpt.h"
 651              		.file 36 "../../lib/e-puck2_main-processor/ChibiOS//os/hal/ports/STM32/LLD/TIMv1/gpt_lld.h"
 652              		.file 37 "../../lib/e-puck2_main-processor/ChibiOS//os/hal/ports/STM32/LLD/TIMv1/stm32_tim.h"
 653              		.file 38 "../../lib/e-puck2_main-processor/ChibiOS//os/hal/include/i2c.h"
 654              		.file 39 "../../lib/e-puck2_main-processor/ChibiOS//os/hal/ports/STM32/LLD/I2Cv1/i2c_lld.h"
 655              		.file 40 "../../lib/e-puck2_main-processor/ChibiOS//os/hal/include/i2s.h"
 656              		.file 41 "../../lib/e-puck2_main-processor/ChibiOS//os/hal/ports/STM32/LLD/SPIv1/i2s_lld.h"
 657              		.file 42 "../../lib/e-puck2_main-processor/ChibiOS//os/hal/include/pwm.h"
 658              		.file 43 "../../lib/e-puck2_main-processor/ChibiOS//os/hal/ports/STM32/LLD/TIMv1/pwm_lld.h"
 659              		.file 44 "../../lib/e-puck2_main-processor/ChibiOS//os/hal/include/serial.h"
 660              		.file 45 "../../lib/e-puck2_main-processor/ChibiOS//os/hal/ports/STM32/LLD/USARTv1/serial_lld.h"
 661              		.file 46 "../../lib/e-puck2_main-processor/ChibiOS//os/hal/include/sdc.h"
 662              		.file 47 "../../lib/e-puck2_main-processor/ChibiOS//os/hal/ports/STM32/LLD/sdc_lld.h"
 663              		.file 48 "../../lib/e-puck2_main-processor/ChibiOS//os/hal/include/spi.h"
 664              		.file 49 "../../lib/e-puck2_main-processor/ChibiOS//os/hal/ports/STM32/LLD/SPIv1/spi_lld.h"
 665              		.file 50 "../../lib/e-puck2_main-processor/ChibiOS//os/hal/include/usb.h"
 666              		.file 51 "../../lib/e-puck2_main-processor/ChibiOS//os/hal/ports/STM32/LLD/OTGv1/usb_lld.h"
 667              		.file 52 "../../lib/e-puck2_main-processor/ChibiOS//os/hal/ports/STM32/LLD/OTGv1/stm32_otg.h"
 668              		.file 53 "../../lib/e-puck2_main-processor/ChibiOS//os/hal/include/serial_usb.h"
 669              		.file 54 "../../lib/e-puck2_main-processor/ChibiOS_ext/os/hal/include/../ports/STM32/STM32F4xx/dcm
 670              		.file 55 "c:\\users\\acer\\desktop\\microinformatique-tp\\eclipse_e-puck2\\tools\\gcc-arm-none-eab
 671              		.file 56 "c:\\users\\acer\\desktop\\microinformatique-tp\\eclipse_e-puck2\\tools\\gcc-arm-none-eab
 672              		.file 57 "<built-in>"
 673              		.file 58 "c:\\users\\acer\\desktop\\microinformatique-tp\\eclipse_e-puck2\\tools\\gcc-arm-none-eab
 674              		.file 59 "../../lib/e-puck2_main-processor/src/msgbus/messagebus.h"
 675              		.file 60 "c:\\users\\acer\\desktop\\microinformatique-tp\\eclipse_e-puck2\\tools\\gcc-arm-none-eab
 676              		.file 61 "c:\\users\\acer\\desktop\\microinformatique-tp\\eclipse_e-puck2\\tools\\gcc-arm-none-eab
 677              		.file 62 "../../lib/e-puck2_main-processor/src/parameter/parameter.h"
 678              		.file 63 "./main.h"
ARM GAS  C:\Users\Acer\AppData\Local\Temp\ccpWL1Xq.s 			page 13


 679              		.file 64 "c:\\users\\acer\\desktop\\microinformatique-tp\\eclipse_e-puck2\\tools\\gcc-arm-none-eab
 680              		.file 65 "../../lib/e-puck2_main-processor/src/usbcfg.h"
 681              		.file 66 "audio_processing.h"
 682              		.file 67 "../../lib/e-puck2_main-processor/src/sensors/VL53L0X/VL53L0X.h"
 683              		.file 68 "../../lib/e-puck2_main-processor/src/motors.h"
 684              		.file 69 "../../lib/e-puck2_main-processor/src/sensors/proximity.h"