ARM GAS  C:\Users\Acer\AppData\Local\Temp\ccMQmXt9.s 			page 1


   1              		.cpu cortex-m4
   2              		.eabi_attribute 27, 1
   3              		.eabi_attribute 28, 1
   4              		.eabi_attribute 20, 1
   5              		.eabi_attribute 21, 1
   6              		.eabi_attribute 23, 3
   7              		.eabi_attribute 24, 1
   8              		.eabi_attribute 25, 1
   9              		.eabi_attribute 26, 1
  10              		.eabi_attribute 30, 2
  11              		.eabi_attribute 34, 1
  12              		.eabi_attribute 18, 4
  13              		.file	"VL53L0X.c"
  14              		.text
  15              	.Ltext0:
  16              		.cfi_sections	.debug_frame
  17              		.section	.text.chprintf.constprop.1,"ax",%progbits
  18              		.align	1
  19              		.p2align 4,,15
  20              		.syntax unified
  21              		.thumb
  22              		.thumb_func
  23              		.fpu fpv4-sp-d16
  24              		.type	chprintf.constprop.1, %function
  25              	chprintf.constprop.1:
  26              	.LFB270:
  27              		.file 1 "c:\\users\\acer\\desktop\\microinformatique-tp\\lib\\e-puck2_main-processor\\chibios\\os\
  28              		.loc 1 69 0
  29              		.cfi_startproc
  30              		@ args = 4, pretend = 12, frame = 8
  31              		@ frame_needed = 0, uses_anonymous_args = 1
  32              	.LVL0:
  33 0000 0EB4     		push	{r1, r2, r3}
  34              		.cfi_def_cfa_offset 12
  35              		.cfi_offset 1, -12
  36              		.cfi_offset 2, -8
  37              		.cfi_offset 3, -4
  38 0002 10B5     		push	{r4, lr}
  39              		.cfi_def_cfa_offset 20
  40              		.cfi_offset 4, -20
  41              		.cfi_offset 14, -16
  42 0004 83B0     		sub	sp, sp, #12
  43              		.cfi_def_cfa_offset 32
  44              		.loc 1 69 0
  45 0006 05AA     		add	r2, sp, #20
  46 0008 094C     		ldr	r4, .L6
  47 000a 52F8041B 		ldr	r1, [r2], #4
  48 000e 2368     		ldr	r3, [r4]
  49              		.loc 1 74 0
  50 0010 0848     		ldr	r0, .L6+4
  51              	.LVL1:
  52              		.loc 1 73 0
  53 0012 0092     		str	r2, [sp]
  54              		.loc 1 69 0
  55 0014 0193     		str	r3, [sp, #4]
  56              	.LVL2:
  57              		.loc 1 74 0
ARM GAS  C:\Users\Acer\AppData\Local\Temp\ccMQmXt9.s 			page 2


  58 0016 FFF7FEFF 		bl	chvprintf
  59              	.LVL3:
  60              		.loc 1 78 0
  61 001a 019A     		ldr	r2, [sp, #4]
  62 001c 2368     		ldr	r3, [r4]
  63 001e 9A42     		cmp	r2, r3
  64 0020 04D1     		bne	.L5
  65 0022 03B0     		add	sp, sp, #12
  66              		.cfi_remember_state
  67              		.cfi_def_cfa_offset 20
  68              		@ sp needed
  69 0024 BDE81040 		pop	{r4, lr}
  70              		.cfi_restore 14
  71              		.cfi_restore 4
  72              		.cfi_def_cfa_offset 12
  73 0028 03B0     		add	sp, sp, #12
  74              		.cfi_restore 3
  75              		.cfi_restore 2
  76              		.cfi_restore 1
  77              		.cfi_def_cfa_offset 0
  78 002a 7047     		bx	lr
  79              	.L5:
  80              		.cfi_restore_state
  81 002c FFF7FEFF 		bl	__stack_chk_fail
  82              	.LVL4:
  83              	.L7:
  84              		.align	2
  85              	.L6:
  86 0030 00000000 		.word	__stack_chk_guard
  87 0034 00000000 		.word	SD3
  88              		.cfi_endproc
  89              	.LFE270:
  90              		.size	chprintf.constprop.1, .-chprintf.constprop.1
  91              		.section	.text.VL53L0X_init,"ax",%progbits
  92              		.align	1
  93              		.p2align 4,,15
  94              		.global	VL53L0X_init
  95              		.syntax unified
  96              		.thumb
  97              		.thumb_func
  98              		.fpu fpv4-sp-d16
  99              		.type	VL53L0X_init, %function
 100              	VL53L0X_init:
 101              	.LFB261:
 102              		.file 2 "C:\\Users\\Acer\\Desktop\\Microinformatique-TP\\lib\\e-puck2_main-processor/src/sensors/V
 103              		.loc 2 58 0
 104              		.cfi_startproc
 105              		@ args = 0, pretend = 0, frame = 16
 106              		@ frame_needed = 0, uses_anonymous_args = 0
 107              	.LVL5:
 108 0000 30B5     		push	{r4, r5, lr}
 109              		.cfi_def_cfa_offset 12
 110              		.cfi_offset 4, -12
 111              		.cfi_offset 5, -8
 112              		.cfi_offset 14, -4
 113 0002 164C     		ldr	r4, .L14
 114 0004 85B0     		sub	sp, sp, #20
ARM GAS  C:\Users\Acer\AppData\Local\Temp\ccMQmXt9.s 			page 3


 115              		.cfi_def_cfa_offset 32
 116              		.loc 2 58 0
 117 0006 2368     		ldr	r3, [r4]
 118 0008 0393     		str	r3, [sp, #12]
 119              	.LVL6:
 120 000a 0546     		mov	r5, r0
 121              		.loc 2 71 0
 122 000c FFF7FEFF 		bl	VL53L0X_DataInit
 123              	.LVL7:
 124              		.loc 2 74 0
 125 0010 28B1     		cbz	r0, .L12
 126              	.LVL8:
 127              	.L9:
 128              		.loc 2 102 0
 129 0012 039A     		ldr	r2, [sp, #12]
 130 0014 2368     		ldr	r3, [r4]
 131 0016 9A42     		cmp	r2, r3
 132 0018 1DD1     		bne	.L13
 133 001a 05B0     		add	sp, sp, #20
 134              		.cfi_remember_state
 135              		.cfi_def_cfa_offset 12
 136              		@ sp needed
 137 001c 30BD     		pop	{r4, r5, pc}
 138              	.LVL9:
 139              	.L12:
 140              		.cfi_restore_state
 141              		.loc 2 77 0
 142 001e 05F5AE71 		add	r1, r5, #348
 143 0022 2846     		mov	r0, r5
 144              	.LVL10:
 145 0024 FFF7FEFF 		bl	VL53L0X_GetDeviceInfo
 146              	.LVL11:
 147              		.loc 2 80 0
 148 0028 0028     		cmp	r0, #0
 149 002a F2D1     		bne	.L9
 150              		.loc 2 83 0
 151 002c 2846     		mov	r0, r5
 152              	.LVL12:
 153 002e FFF7FEFF 		bl	VL53L0X_StaticInit
 154              	.LVL13:
 155              		.loc 2 87 0
 156 0032 0028     		cmp	r0, #0
 157 0034 EDD1     		bne	.L9
 158              		.loc 2 90 0
 159 0036 0DF10502 		add	r2, sp, #5
 160 003a 02A9     		add	r1, sp, #8
 161 003c 2846     		mov	r0, r5
 162              	.LVL14:
 163 003e FFF7FEFF 		bl	VL53L0X_PerformRefSpadManagement
 164              	.LVL15:
 165              		.loc 2 94 0
 166 0042 0028     		cmp	r0, #0
 167 0044 E5D1     		bne	.L9
 168              	.LVL16:
 169              	.LBB14:
 170              	.LBB15:
 171              		.loc 2 97 0
ARM GAS  C:\Users\Acer\AppData\Local\Temp\ccMQmXt9.s 			page 4


 172 0046 2846     		mov	r0, r5
 173              	.LVL17:
 174 0048 0DF10702 		add	r2, sp, #7
 175 004c 0DF10601 		add	r1, sp, #6
 176 0050 FFF7FEFF 		bl	VL53L0X_PerformRefCalibration
 177              	.LVL18:
 178 0054 DDE7     		b	.L9
 179              	.LVL19:
 180              	.L13:
 181              	.LBE15:
 182              	.LBE14:
 183              		.loc 2 102 0
 184 0056 FFF7FEFF 		bl	__stack_chk_fail
 185              	.LVL20:
 186              	.L15:
 187 005a 00BF     		.align	2
 188              	.L14:
 189 005c 00000000 		.word	__stack_chk_guard
 190              		.cfi_endproc
 191              	.LFE261:
 192              		.size	VL53L0X_init, .-VL53L0X_init
 193              		.section	.text.VL53L0X_configAccuracy,"ax",%progbits
 194              		.align	1
 195              		.p2align 4,,15
 196              		.global	VL53L0X_configAccuracy
 197              		.syntax unified
 198              		.thumb
 199              		.thumb_func
 200              		.fpu fpv4-sp-d16
 201              		.type	VL53L0X_configAccuracy, %function
 202              	VL53L0X_configAccuracy:
 203              	.LFB262:
 204              		.loc 2 104 0
 205              		.cfi_startproc
 206              		@ args = 0, pretend = 0, frame = 8
 207              		@ frame_needed = 0, uses_anonymous_args = 0
 208              	.LVL21:
 209 0000 70B5     		push	{r4, r5, r6, lr}
 210              		.cfi_def_cfa_offset 16
 211              		.cfi_offset 4, -16
 212              		.cfi_offset 5, -12
 213              		.cfi_offset 6, -8
 214              		.cfi_offset 14, -4
 215 0002 554D     		ldr	r5, .L35
 216 0004 82B0     		sub	sp, sp, #8
 217              		.cfi_def_cfa_offset 24
 218              		.loc 2 104 0
 219 0006 0C46     		mov	r4, r1
 220 0008 2B68     		ldr	r3, [r5]
 221 000a 0193     		str	r3, [sp, #4]
 222              	.LVL22:
 223              		.loc 2 110 0
 224 000c 0122     		movs	r2, #1
 225 000e 0021     		movs	r1, #0
 226              	.LVL23:
 227              		.loc 2 104 0
 228 0010 0646     		mov	r6, r0
ARM GAS  C:\Users\Acer\AppData\Local\Temp\ccMQmXt9.s 			page 5


 229              		.loc 2 110 0
 230 0012 FFF7FEFF 		bl	VL53L0X_SetLimitCheckEnable
 231              	.LVL24:
 232              		.loc 2 114 0
 233 0016 0028     		cmp	r0, #0
 234 0018 71D0     		beq	.L34
 235              		.loc 2 121 0
 236 001a 032C     		cmp	r4, #3
 237 001c 03D8     		bhi	.L18
 238 001e DFE804F0 		tbb	[pc, r4]
 239              	.L29:
 240 0022 04       		.byte	(.L24-.L29)/2
 241 0023 51       		.byte	(.L21-.L29)/2
 242 0024 25       		.byte	(.L22-.L29)/2
 243 0025 0B       		.byte	(.L23-.L29)/2
 244              		.p2align 1
 245              	.L18:
 246              		.loc 2 195 0
 247 0026 6FF00300 		mvn	r0, #3
 248              	.LVL25:
 249              	.L24:
 250              		.loc 2 200 0
 251 002a 019A     		ldr	r2, [sp, #4]
 252 002c 2B68     		ldr	r3, [r5]
 253 002e 9A42     		cmp	r2, r3
 254 0030 40F08F80 		bne	.L31
 255 0034 02B0     		add	sp, sp, #8
 256              		.cfi_remember_state
 257              		.cfi_def_cfa_offset 16
 258              		@ sp needed
 259 0036 70BD     		pop	{r4, r5, r6, pc}
 260              	.LVL26:
 261              	.L23:
 262              		.cfi_restore_state
 263              		.loc 2 179 0
 264 0038 0028     		cmp	r0, #0
 265 003a F6D1     		bne	.L24
 266              		.loc 2 180 0
 267 003c 4FF48042 		mov	r2, #16384
 268 0040 0121     		movs	r1, #1
 269 0042 3046     		mov	r0, r6
 270              	.LVL27:
 271 0044 FFF7FEFF 		bl	VL53L0X_SetLimitCheckValue
 272              	.LVL28:
 273              		.loc 2 184 0
 274 0048 0028     		cmp	r0, #0
 275 004a EED1     		bne	.L24
 276              		.loc 2 185 0
 277 004c 0146     		mov	r1, r0
 278 004e 4FF40012 		mov	r2, #2097152
 279 0052 3046     		mov	r0, r6
 280              	.LVL29:
 281 0054 FFF7FEFF 		bl	VL53L0X_SetLimitCheckValue
 282              	.LVL30:
 283              		.loc 2 189 0
 284 0058 0028     		cmp	r0, #0
 285 005a E6D1     		bne	.L24
ARM GAS  C:\Users\Acer\AppData\Local\Temp\ccMQmXt9.s 			page 6


 286              		.loc 2 190 0
 287 005c 019A     		ldr	r2, [sp, #4]
 288 005e 2B68     		ldr	r3, [r5]
 289 0060 9A42     		cmp	r2, r3
 290 0062 76D1     		bne	.L31
 291 0064 3046     		mov	r0, r6
 292              	.LVL31:
 293 0066 47F23051 		movw	r1, #30000
 294 006a 43E0     		b	.L33
 295              	.LVL32:
 296              	.L22:
 297              		.loc 2 154 0
 298 006c 0028     		cmp	r0, #0
 299 006e DCD1     		bne	.L24
 300              		.loc 2 155 0
 301 0070 41F69912 		movw	r2, #6553
 302 0074 0121     		movs	r1, #1
 303 0076 3046     		mov	r0, r6
 304              	.LVL33:
 305 0078 FFF7FEFF 		bl	VL53L0X_SetLimitCheckValue
 306              	.LVL34:
 307              		.loc 2 159 0
 308 007c 0028     		cmp	r0, #0
 309 007e D4D1     		bne	.L24
 310              		.loc 2 160 0
 311 0080 0146     		mov	r1, r0
 312 0082 4FF47012 		mov	r2, #3932160
 313 0086 3046     		mov	r0, r6
 314              	.LVL35:
 315 0088 FFF7FEFF 		bl	VL53L0X_SetLimitCheckValue
 316              	.LVL36:
 317              		.loc 2 164 0
 318 008c 0028     		cmp	r0, #0
 319 008e CCD1     		bne	.L24
 320              		.loc 2 165 0
 321 0090 48F2E801 		movw	r1, #33000
 322 0094 3046     		mov	r0, r6
 323              	.LVL37:
 324 0096 FFF7FEFF 		bl	VL53L0X_SetMeasurementTimingBudgetMicroSeconds
 325              	.LVL38:
 326              		.loc 2 168 0
 327 009a 0028     		cmp	r0, #0
 328 009c C5D1     		bne	.L24
 329              		.loc 2 169 0
 330 009e 0146     		mov	r1, r0
 331 00a0 1222     		movs	r2, #18
 332 00a2 3046     		mov	r0, r6
 333              	.LVL39:
 334 00a4 FFF7FEFF 		bl	VL53L0X_SetVcselPulsePeriod
 335              	.LVL40:
 336              		.loc 2 172 0
 337 00a8 0028     		cmp	r0, #0
 338 00aa BED1     		bne	.L24
 339              		.loc 2 173 0
 340 00ac 019A     		ldr	r2, [sp, #4]
 341 00ae 2B68     		ldr	r3, [r5]
 342 00b0 9A42     		cmp	r2, r3
ARM GAS  C:\Users\Acer\AppData\Local\Temp\ccMQmXt9.s 			page 7


 343 00b2 4ED1     		bne	.L31
 344 00b4 3046     		mov	r0, r6
 345              	.LVL41:
 346 00b6 0E22     		movs	r2, #14
 347 00b8 0121     		movs	r1, #1
 348              		.loc 2 200 0
 349 00ba 02B0     		add	sp, sp, #8
 350              		.cfi_remember_state
 351              		.cfi_def_cfa_offset 16
 352              		@ sp needed
 353 00bc BDE87040 		pop	{r4, r5, r6, lr}
 354              		.cfi_restore 14
 355              		.cfi_restore 6
 356              		.cfi_restore 5
 357              		.cfi_restore 4
 358              		.cfi_def_cfa_offset 0
 359              	.LVL42:
 360              		.loc 2 173 0
 361 00c0 FFF7FEBF 		b	VL53L0X_SetVcselPulsePeriod
 362              	.LVL43:
 363              	.L21:
 364              		.cfi_restore_state
 365              		.loc 2 137 0
 366 00c4 0028     		cmp	r0, #0
 367 00c6 B0D1     		bne	.L24
 368              		.loc 2 138 0
 369 00c8 4FF48042 		mov	r2, #16384
 370 00cc 0121     		movs	r1, #1
 371 00ce 3046     		mov	r0, r6
 372              	.LVL44:
 373 00d0 FFF7FEFF 		bl	VL53L0X_SetLimitCheckValue
 374              	.LVL45:
 375              		.loc 2 142 0
 376 00d4 0028     		cmp	r0, #0
 377 00d6 A8D1     		bne	.L24
 378              		.loc 2 143 0
 379 00d8 0146     		mov	r1, r0
 380 00da 4FF49012 		mov	r2, #1179648
 381 00de 3046     		mov	r0, r6
 382              	.LVL46:
 383 00e0 FFF7FEFF 		bl	VL53L0X_SetLimitCheckValue
 384              	.LVL47:
 385              		.loc 2 147 0
 386 00e4 0028     		cmp	r0, #0
 387 00e6 A0D1     		bne	.L24
 388              		.loc 2 148 0
 389 00e8 019A     		ldr	r2, [sp, #4]
 390 00ea 2B68     		ldr	r3, [r5]
 391 00ec 9A42     		cmp	r2, r3
 392 00ee 30D1     		bne	.L31
 393 00f0 1A49     		ldr	r1, .L35+4
 394 00f2 3046     		mov	r0, r6
 395              	.LVL48:
 396              	.L33:
 397              		.loc 2 200 0
 398 00f4 02B0     		add	sp, sp, #8
 399              		.cfi_remember_state
ARM GAS  C:\Users\Acer\AppData\Local\Temp\ccMQmXt9.s 			page 8


 400              		.cfi_def_cfa_offset 16
 401              		@ sp needed
 402 00f6 BDE87040 		pop	{r4, r5, r6, lr}
 403              		.cfi_restore 14
 404              		.cfi_restore 6
 405              		.cfi_restore 5
 406              		.cfi_restore 4
 407              		.cfi_def_cfa_offset 0
 408              		.loc 2 190 0
 409 00fa FFF7FEBF 		b	VL53L0X_SetMeasurementTimingBudgetMicroSeconds
 410              	.LVL49:
 411              	.L34:
 412              		.cfi_restore_state
 413              		.loc 2 115 0
 414 00fe 0122     		movs	r2, #1
 415 0100 1146     		mov	r1, r2
 416 0102 3046     		mov	r0, r6
 417              	.LVL50:
 418 0104 FFF7FEFF 		bl	VL53L0X_SetLimitCheckEnable
 419              	.LVL51:
 420              		.loc 2 121 0
 421 0108 032C     		cmp	r4, #3
 422 010a 8CD8     		bhi	.L18
 423 010c 01A3     		adr	r3, .L20
 424 010e 53F824F0 		ldr	pc, [r3, r4, lsl #2]
 425 0112 00BF     		.p2align 2
 426              	.L20:
 427 0114 25010000 		.word	.L19+1
 428 0118 C5000000 		.word	.L21+1
 429 011c 6D000000 		.word	.L22+1
 430 0120 39000000 		.word	.L23+1
 431              		.p2align 1
 432              	.L19:
 433              		.loc 2 124 0
 434 0124 0028     		cmp	r0, #0
 435 0126 80D1     		bne	.L24
 436              		.loc 2 125 0
 437 0128 0122     		movs	r2, #1
 438 012a 0321     		movs	r1, #3
 439 012c 3046     		mov	r0, r6
 440              	.LVL52:
 441 012e FFF7FEFF 		bl	VL53L0X_SetLimitCheckEnable
 442              	.LVL53:
 443              		.loc 2 129 0
 444 0132 0028     		cmp	r0, #0
 445 0134 7FF479AF 		bne	.L24
 446              		.loc 2 130 0
 447 0138 019A     		ldr	r2, [sp, #4]
 448 013a 2B68     		ldr	r3, [r5]
 449 013c 9A42     		cmp	r2, r3
 450 013e 08D1     		bne	.L31
 451 0140 3046     		mov	r0, r6
 452              	.LVL54:
 453 0142 40F6D402 		movw	r2, #2260
 454 0146 0321     		movs	r1, #3
 455              		.loc 2 200 0
 456 0148 02B0     		add	sp, sp, #8
ARM GAS  C:\Users\Acer\AppData\Local\Temp\ccMQmXt9.s 			page 9


 457              		.cfi_remember_state
 458              		.cfi_def_cfa_offset 16
 459              		@ sp needed
 460 014a BDE87040 		pop	{r4, r5, r6, lr}
 461              		.cfi_restore 14
 462              		.cfi_restore 6
 463              		.cfi_restore 5
 464              		.cfi_restore 4
 465              		.cfi_def_cfa_offset 0
 466              	.LVL55:
 467              		.loc 2 130 0
 468 014e FFF7FEBF 		b	VL53L0X_SetLimitCheckValue
 469              	.LVL56:
 470              	.L31:
 471              		.cfi_restore_state
 472              		.loc 2 200 0
 473 0152 FFF7FEFF 		bl	__stack_chk_fail
 474              	.LVL57:
 475              	.L36:
 476 0156 00BF     		.align	2
 477              	.L35:
 478 0158 00000000 		.word	__stack_chk_guard
 479 015c 400D0300 		.word	200000
 480              		.cfi_endproc
 481              	.LFE262:
 482              		.size	VL53L0X_configAccuracy, .-VL53L0X_configAccuracy
 483              		.section	.text.VL53L0X_startMeasure,"ax",%progbits
 484              		.align	1
 485              		.p2align 4,,15
 486              		.global	VL53L0X_startMeasure
 487              		.syntax unified
 488              		.thumb
 489              		.thumb_func
 490              		.fpu fpv4-sp-d16
 491              		.type	VL53L0X_startMeasure, %function
 492              	VL53L0X_startMeasure:
 493              	.LFB263:
 494              		.loc 2 202 0
 495              		.cfi_startproc
 496              		@ args = 0, pretend = 0, frame = 8
 497              		@ frame_needed = 0, uses_anonymous_args = 0
 498              	.LVL58:
 499 0000 30B5     		push	{r4, r5, lr}
 500              		.cfi_def_cfa_offset 12
 501              		.cfi_offset 4, -12
 502              		.cfi_offset 5, -8
 503              		.cfi_offset 14, -4
 504 0002 0C4C     		ldr	r4, .L44
 505 0004 83B0     		sub	sp, sp, #12
 506              		.cfi_def_cfa_offset 24
 507              		.loc 2 202 0
 508 0006 2368     		ldr	r3, [r4]
 509 0008 0193     		str	r3, [sp, #4]
 510              	.LVL59:
 511 000a 0546     		mov	r5, r0
 512              		.loc 2 206 0
 513 000c FFF7FEFF 		bl	VL53L0X_SetDeviceMode
ARM GAS  C:\Users\Acer\AppData\Local\Temp\ccMQmXt9.s 			page 10


 514              	.LVL60:
 515              		.loc 2 209 0
 516 0010 019A     		ldr	r2, [sp, #4]
 517 0012 2368     		ldr	r3, [r4]
 518              		.loc 2 208 0
 519 0014 18B1     		cbz	r0, .L43
 520              	.LVL61:
 521              		.loc 2 213 0
 522 0016 9A42     		cmp	r2, r3
 523 0018 09D1     		bne	.L42
 524 001a 03B0     		add	sp, sp, #12
 525              		.cfi_remember_state
 526              		.cfi_def_cfa_offset 12
 527              		@ sp needed
 528 001c 30BD     		pop	{r4, r5, pc}
 529              	.LVL62:
 530              	.L43:
 531              		.cfi_restore_state
 532              		.loc 2 209 0
 533 001e 9A42     		cmp	r2, r3
 534 0020 05D1     		bne	.L42
 535 0022 2846     		mov	r0, r5
 536              	.LVL63:
 537              		.loc 2 213 0
 538 0024 03B0     		add	sp, sp, #12
 539              		.cfi_remember_state
 540              		.cfi_def_cfa_offset 12
 541              		@ sp needed
 542 0026 BDE83040 		pop	{r4, r5, lr}
 543              		.cfi_restore 14
 544              		.cfi_restore 5
 545              		.cfi_restore 4
 546              		.cfi_def_cfa_offset 0
 547              	.LVL64:
 548              		.loc 2 209 0
 549 002a FFF7FEBF 		b	VL53L0X_StartMeasurement
 550              	.LVL65:
 551              	.L42:
 552              		.cfi_restore_state
 553              		.loc 2 213 0
 554 002e FFF7FEFF 		bl	__stack_chk_fail
 555              	.LVL66:
 556              	.L45:
 557 0032 00BF     		.align	2
 558              	.L44:
 559 0034 00000000 		.word	__stack_chk_guard
 560              		.cfi_endproc
 561              	.LFE263:
 562              		.size	VL53L0X_startMeasure, .-VL53L0X_startMeasure
 563              		.section	.text.VL53L0XThd,"ax",%progbits
 564              		.align	1
 565              		.p2align 4,,15
 566              		.syntax unified
 567              		.thumb
 568              		.thumb_func
 569              		.fpu fpv4-sp-d16
 570              		.type	VL53L0XThd, %function
ARM GAS  C:\Users\Acer\AppData\Local\Temp\ccMQmXt9.s 			page 11


 571              	VL53L0XThd:
 572              	.LFB260:
 573              		.loc 2 23 0
 574              		.cfi_startproc
 575              		@ args = 0, pretend = 0, frame = 8
 576              		@ frame_needed = 0, uses_anonymous_args = 0
 577              	.LVL67:
 578 0000 2DE9F04F 		push	{r4, r5, r6, r7, r8, r9, r10, fp, lr}
 579              		.cfi_def_cfa_offset 36
 580              		.cfi_offset 4, -36
 581              		.cfi_offset 5, -32
 582              		.cfi_offset 6, -28
 583              		.cfi_offset 7, -24
 584              		.cfi_offset 8, -20
 585              		.cfi_offset 9, -16
 586              		.cfi_offset 10, -12
 587              		.cfi_offset 11, -8
 588              		.cfi_offset 14, -4
 589              	.LBB16:
 590              	.LBB17:
 591              		.file 3 "c:\\users\\acer\\desktop\\microinformatique-tp\\lib\\e-puck2_main-processor\\chibios\\os\
 592              		.loc 3 135 0
 593 0004 284D     		ldr	r5, .L59
 594              	.LBE17:
 595              	.LBE16:
 596              		.loc 2 23 0
 597 0006 DFF8BCA0 		ldr	r10, .L59+28
 598              	.LBB20:
 599              	.LBB18:
 600              		.loc 3 135 0
 601 000a AB69     		ldr	r3, [r5, #24]
 602              	.LBE18:
 603              	.LBE20:
 604              		.loc 2 31 0
 605 000c DFF8B090 		ldr	r9, .L59+24
 606              	.LBB21:
 607              	.LBB19:
 608              		.loc 3 135 0
 609 0010 264A     		ldr	r2, .L59+4
 610 0012 9A61     		str	r2, [r3, #24]
 611              	.LBE19:
 612              	.LBE21:
 613              		.loc 2 23 0
 614 0014 83B0     		sub	sp, sp, #12
 615              		.cfi_def_cfa_offset 48
 616              		.loc 2 23 0
 617 0016 DAF80030 		ldr	r3, [r10]
 618 001a 0193     		str	r3, [sp, #4]
 619              	.LVL68:
 620              		.loc 2 33 0
 621 001c 4846     		mov	r0, r9
 622              	.LVL69:
 623              		.loc 2 31 0
 624 001e 5223     		movs	r3, #82
 625 0020 89F8BF31 		strb	r3, [r9, #447]
 626              		.loc 2 33 0
 627 0024 FFF7FEFF 		bl	VL53L0X_init
ARM GAS  C:\Users\Acer\AppData\Local\Temp\ccMQmXt9.s 			page 12


 628              	.LVL70:
 629              		.loc 2 35 0
 630 0028 50B9     		cbnz	r0, .L47
 631              		.loc 2 36 0
 632 002a 0221     		movs	r1, #2
 633 002c 4846     		mov	r0, r9
 634              	.LVL71:
 635 002e FFF7FEFF 		bl	VL53L0X_configAccuracy
 636              	.LVL72:
 637              		.loc 2 42 0
 638 0032 1F4F     		ldr	r7, .L59+8
 639              		.loc 2 39 0
 640 0034 0121     		movs	r1, #1
 641 0036 4846     		mov	r0, r9
 642 0038 FFF7FEFF 		bl	VL53L0X_startMeasure
 643              	.LVL73:
 644              		.loc 2 42 0
 645 003c 0123     		movs	r3, #1
 646 003e 3B70     		strb	r3, [r7]
 647              	.L47:
 648              	.LBB22:
 649              	.LBB23:
 650              		.file 4 "c:\\users\\acer\\desktop\\microinformatique-tp\\lib\\e-puck2_main-processor\\chibios\\os\
 651              		.loc 4 233 0
 652 0040 AB69     		ldr	r3, [r5, #24]
 653              	.LBE23:
 654              	.LBE22:
 655              		.loc 2 46 0
 656 0042 93F82130 		ldrb	r3, [r3, #33]	@ zero_extendqisi2
 657 0046 5A07     		lsls	r2, r3, #29
 658 0048 23D4     		bmi	.L46
 659 004a 194F     		ldr	r7, .L59+8
 660 004c 194E     		ldr	r6, .L59+12
 661              	.LBB25:
 662              	.LBB26:
 663              		.loc 2 216 0
 664 004e DFF878B0 		ldr	fp, .L59+32
 665              	.LBE26:
 666              	.LBE25:
 667              		.loc 2 51 0
 668 0052 DFF87880 		ldr	r8, .L59+36
 669 0056 184C     		ldr	r4, .L59+16
 670 0058 10E0     		b	.L50
 671              	.L49:
 672 005a 4146     		mov	r1, r8
 673 005c 2046     		mov	r0, r4
 674 005e FFF7FEFF 		bl	chprintf.constprop.1
 675              	.LVL74:
 676              		.loc 2 52 0
 677 0062 3288     		ldrh	r2, [r6]
 678 0064 1549     		ldr	r1, .L59+20
 679 0066 2046     		mov	r0, r4
 680 0068 FFF7FEFF 		bl	chprintf.constprop.1
 681              	.LVL75:
 682              		.loc 2 53 0
 683 006c 3220     		movs	r0, #50
 684 006e FFF7FEFF 		bl	chThdSleep
ARM GAS  C:\Users\Acer\AppData\Local\Temp\ccMQmXt9.s 			page 13


 685              	.LVL76:
 686              	.LBB28:
 687              	.LBB24:
 688              		.loc 4 233 0
 689 0072 AB69     		ldr	r3, [r5, #24]
 690              	.LBE24:
 691              	.LBE28:
 692              		.loc 2 46 0
 693 0074 93F82130 		ldrb	r3, [r3, #33]	@ zero_extendqisi2
 694 0078 5B07     		lsls	r3, r3, #29
 695 007a 0AD4     		bmi	.L46
 696              	.L50:
 697              		.loc 2 47 0
 698 007c 3B78     		ldrb	r3, [r7]	@ zero_extendqisi2
 699 007e 002B     		cmp	r3, #0
 700 0080 EBD0     		beq	.L49
 701              	.LVL77:
 702              	.LBB29:
 703              	.LBB27:
 704              		.loc 2 216 0
 705 0082 5946     		mov	r1, fp
 706 0084 0E48     		ldr	r0, .L59+24
 707 0086 FFF7FEFF 		bl	VL53L0X_GetRangingMeasurementData
 708              	.LVL78:
 709              	.LBE27:
 710              	.LBE29:
 711              		.loc 2 49 0
 712 008a B9F85830 		ldrh	r3, [r9, #88]
 713 008e 3380     		strh	r3, [r6]	@ movhi
 714 0090 E3E7     		b	.L49
 715              	.L46:
 716              		.loc 2 55 0
 717 0092 019A     		ldr	r2, [sp, #4]
 718 0094 DAF80030 		ldr	r3, [r10]
 719 0098 9A42     		cmp	r2, r3
 720 009a 02D1     		bne	.L58
 721 009c 03B0     		add	sp, sp, #12
 722              		.cfi_remember_state
 723              		.cfi_def_cfa_offset 36
 724              		@ sp needed
 725 009e BDE8F08F 		pop	{r4, r5, r6, r7, r8, r9, r10, fp, pc}
 726              	.L58:
 727              		.cfi_restore_state
 728 00a2 FFF7FEFF 		bl	__stack_chk_fail
 729              	.LVL79:
 730              	.L60:
 731 00a6 00BF     		.align	2
 732              	.L59:
 733 00a8 00000000 		.word	ch
 734 00ac 00000000 		.word	.LC0
 735 00b0 00000000 		.word	.LANCHOR1
 736 00b4 00000000 		.word	.LANCHOR2
 737 00b8 00000000 		.word	SD3
 738 00bc 20000000 		.word	.LC2
 739 00c0 00000000 		.word	.LANCHOR0
 740 00c4 00000000 		.word	__stack_chk_guard
 741 00c8 50000000 		.word	.LANCHOR0+80
ARM GAS  C:\Users\Acer\AppData\Local\Temp\ccMQmXt9.s 			page 14


 742 00cc 0C000000 		.word	.LC1
 743              		.cfi_endproc
 744              	.LFE260:
 745              		.size	VL53L0XThd, .-VL53L0XThd
 746              		.section	.text.VL53L0X_getLastMeasure,"ax",%progbits
 747              		.align	1
 748              		.p2align 4,,15
 749              		.global	VL53L0X_getLastMeasure
 750              		.syntax unified
 751              		.thumb
 752              		.thumb_func
 753              		.fpu fpv4-sp-d16
 754              		.type	VL53L0X_getLastMeasure, %function
 755              	VL53L0X_getLastMeasure:
 756              	.LFB264:
 757              		.loc 2 215 0
 758              		.cfi_startproc
 759              		@ args = 0, pretend = 0, frame = 8
 760              		@ frame_needed = 0, uses_anonymous_args = 0
 761              	.LVL80:
 762 0000 00B5     		push	{lr}
 763              		.cfi_def_cfa_offset 4
 764              		.cfi_offset 14, -4
 765 0002 084B     		ldr	r3, .L66
 766 0004 83B0     		sub	sp, sp, #12
 767              		.cfi_def_cfa_offset 16
 768              		.loc 2 215 0
 769 0006 1A68     		ldr	r2, [r3]
 770 0008 0192     		str	r2, [sp, #4]
 771              		.loc 2 216 0
 772 000a 019A     		ldr	r2, [sp, #4]
 773 000c 1B68     		ldr	r3, [r3]
 774 000e 9A42     		cmp	r2, r3
 775 0010 06D1     		bne	.L65
 776 0012 0146     		mov	r1, r0
 777 0014 5031     		adds	r1, r1, #80
 778              		.loc 2 218 0
 779 0016 03B0     		add	sp, sp, #12
 780              		.cfi_remember_state
 781              		.cfi_def_cfa_offset 4
 782              		@ sp needed
 783 0018 5DF804EB 		ldr	lr, [sp], #4
 784              		.cfi_restore 14
 785              		.cfi_def_cfa_offset 0
 786              		.loc 2 216 0
 787 001c FFF7FEBF 		b	VL53L0X_GetRangingMeasurementData
 788              	.LVL81:
 789              	.L65:
 790              		.cfi_restore_state
 791 0020 FFF7FEFF 		bl	__stack_chk_fail
 792              	.LVL82:
 793              	.L67:
 794              		.align	2
 795              	.L66:
 796 0024 00000000 		.word	__stack_chk_guard
 797              		.cfi_endproc
 798              	.LFE264:
ARM GAS  C:\Users\Acer\AppData\Local\Temp\ccMQmXt9.s 			page 15


 799              		.size	VL53L0X_getLastMeasure, .-VL53L0X_getLastMeasure
 800              		.section	.text.VL53L0X_stopMeasure,"ax",%progbits
 801              		.align	1
 802              		.p2align 4,,15
 803              		.global	VL53L0X_stopMeasure
 804              		.syntax unified
 805              		.thumb
 806              		.thumb_func
 807              		.fpu fpv4-sp-d16
 808              		.type	VL53L0X_stopMeasure, %function
 809              	VL53L0X_stopMeasure:
 810              	.LFB265:
 811              		.loc 2 220 0
 812              		.cfi_startproc
 813              		@ args = 0, pretend = 0, frame = 8
 814              		@ frame_needed = 0, uses_anonymous_args = 0
 815              	.LVL83:
 816 0000 00B5     		push	{lr}
 817              		.cfi_def_cfa_offset 4
 818              		.cfi_offset 14, -4
 819 0002 074B     		ldr	r3, .L73
 820 0004 83B0     		sub	sp, sp, #12
 821              		.cfi_def_cfa_offset 16
 822              		.loc 2 220 0
 823 0006 1A68     		ldr	r2, [r3]
 824 0008 0192     		str	r2, [sp, #4]
 825              		.loc 2 221 0
 826 000a 019A     		ldr	r2, [sp, #4]
 827 000c 1B68     		ldr	r3, [r3]
 828 000e 9A42     		cmp	r2, r3
 829 0010 04D1     		bne	.L72
 830              		.loc 2 222 0
 831 0012 03B0     		add	sp, sp, #12
 832              		.cfi_remember_state
 833              		.cfi_def_cfa_offset 4
 834              		@ sp needed
 835 0014 5DF804EB 		ldr	lr, [sp], #4
 836              		.cfi_restore 14
 837              		.cfi_def_cfa_offset 0
 838              		.loc 2 221 0
 839 0018 FFF7FEBF 		b	VL53L0X_StopMeasurement
 840              	.LVL84:
 841              	.L72:
 842              		.cfi_restore_state
 843 001c FFF7FEFF 		bl	__stack_chk_fail
 844              	.LVL85:
 845              	.L74:
 846              		.align	2
 847              	.L73:
 848 0020 00000000 		.word	__stack_chk_guard
 849              		.cfi_endproc
 850              	.LFE265:
 851              		.size	VL53L0X_stopMeasure, .-VL53L0X_stopMeasure
 852              		.section	.text.VL53L0X_start,"ax",%progbits
 853              		.align	1
 854              		.p2align 4,,15
 855              		.global	VL53L0X_start
ARM GAS  C:\Users\Acer\AppData\Local\Temp\ccMQmXt9.s 			page 16


 856              		.syntax unified
 857              		.thumb
 858              		.thumb_func
 859              		.fpu fpv4-sp-d16
 860              		.type	VL53L0X_start, %function
 861              	VL53L0X_start:
 862              	.LFB266:
 863              		.loc 2 224 0
 864              		.cfi_startproc
 865              		@ args = 0, pretend = 0, frame = 8
 866              		@ frame_needed = 0, uses_anonymous_args = 0
 867 0000 30B5     		push	{r4, r5, lr}
 868              		.cfi_def_cfa_offset 12
 869              		.cfi_offset 4, -12
 870              		.cfi_offset 5, -8
 871              		.cfi_offset 14, -4
 872              		.loc 2 226 0
 873 0002 0D4B     		ldr	r3, .L80
 874              		.loc 2 224 0
 875 0004 0D4C     		ldr	r4, .L80+4
 876              		.loc 2 226 0
 877 0006 1D78     		ldrb	r5, [r3]	@ zero_extendqisi2
 878              		.loc 2 224 0
 879 0008 2368     		ldr	r3, [r4]
 880 000a 85B0     		sub	sp, sp, #20
 881              		.cfi_def_cfa_offset 32
 882              		.loc 2 224 0
 883 000c 0393     		str	r3, [sp, #12]
 884              		.loc 2 226 0
 885 000e 5DB9     		cbnz	r5, .L75
 886              		.loc 2 230 0
 887 0010 FFF7FEFF 		bl	i2c_start
 888              	.LVL86:
 889              		.loc 2 232 0
 890 0014 0A4B     		ldr	r3, .L80+8
 891 0016 0095     		str	r5, [sp]
 892 0018 0A48     		ldr	r0, .L80+12
 893 001a 4322     		movs	r2, #67
 894 001c 4FF45E71 		mov	r1, #888
 895 0020 FFF7FEFF 		bl	chThdCreateStatic
 896              	.LVL87:
 897 0024 084B     		ldr	r3, .L80+16
 898 0026 1860     		str	r0, [r3]
 899              	.L75:
 900              		.loc 2 237 0
 901 0028 039A     		ldr	r2, [sp, #12]
 902 002a 2368     		ldr	r3, [r4]
 903 002c 9A42     		cmp	r2, r3
 904 002e 01D1     		bne	.L79
 905 0030 05B0     		add	sp, sp, #20
 906              		.cfi_remember_state
 907              		.cfi_def_cfa_offset 12
 908              		@ sp needed
 909 0032 30BD     		pop	{r4, r5, pc}
 910              	.L79:
 911              		.cfi_restore_state
 912 0034 FFF7FEFF 		bl	__stack_chk_fail
ARM GAS  C:\Users\Acer\AppData\Local\Temp\ccMQmXt9.s 			page 17


 913              	.LVL88:
 914              	.L81:
 915              		.align	2
 916              	.L80:
 917 0038 00000000 		.word	.LANCHOR1
 918 003c 00000000 		.word	__stack_chk_guard
 919 0040 00000000 		.word	VL53L0XThd
 920 0044 00000000 		.word	.LANCHOR3
 921 0048 00000000 		.word	.LANCHOR4
 922              		.cfi_endproc
 923              	.LFE266:
 924              		.size	VL53L0X_start, .-VL53L0X_start
 925              		.section	.text.VL53L0X_stop,"ax",%progbits
 926              		.align	1
 927              		.p2align 4,,15
 928              		.global	VL53L0X_stop
 929              		.syntax unified
 930              		.thumb
 931              		.thumb_func
 932              		.fpu fpv4-sp-d16
 933              		.type	VL53L0X_stop, %function
 934              	VL53L0X_stop:
 935              	.LFB267:
 936              		.loc 2 239 0
 937              		.cfi_startproc
 938              		@ args = 0, pretend = 0, frame = 8
 939              		@ frame_needed = 0, uses_anonymous_args = 0
 940 0000 30B5     		push	{r4, r5, lr}
 941              		.cfi_def_cfa_offset 12
 942              		.cfi_offset 4, -12
 943              		.cfi_offset 5, -8
 944              		.cfi_offset 14, -4
 945              		.loc 2 240 0
 946 0002 0B4C     		ldr	r4, .L86
 947              		.loc 2 239 0
 948 0004 0B4D     		ldr	r5, .L86+4
 949              		.loc 2 240 0
 950 0006 2068     		ldr	r0, [r4]
 951              		.loc 2 239 0
 952 0008 2B68     		ldr	r3, [r5]
 953 000a 83B0     		sub	sp, sp, #12
 954              		.cfi_def_cfa_offset 24
 955              		.loc 2 239 0
 956 000c 0193     		str	r3, [sp, #4]
 957              		.loc 2 240 0
 958 000e FFF7FEFF 		bl	chThdTerminate
 959              	.LVL89:
 960              		.loc 2 241 0
 961 0012 2068     		ldr	r0, [r4]
 962 0014 FFF7FEFF 		bl	chThdWait
 963              	.LVL90:
 964              		.loc 2 244 0
 965 0018 0199     		ldr	r1, [sp, #4]
 966 001a 2A68     		ldr	r2, [r5]
 967              		.loc 2 243 0
 968 001c 0648     		ldr	r0, .L86+8
 969              		.loc 2 242 0
ARM GAS  C:\Users\Acer\AppData\Local\Temp\ccMQmXt9.s 			page 18


 970 001e 0023     		movs	r3, #0
 971              		.loc 2 244 0
 972 0020 9142     		cmp	r1, r2
 973              		.loc 2 242 0
 974 0022 2360     		str	r3, [r4]
 975              		.loc 2 243 0
 976 0024 0370     		strb	r3, [r0]
 977              		.loc 2 244 0
 978 0026 01D1     		bne	.L85
 979 0028 03B0     		add	sp, sp, #12
 980              		.cfi_remember_state
 981              		.cfi_def_cfa_offset 12
 982              		@ sp needed
 983 002a 30BD     		pop	{r4, r5, pc}
 984              	.L85:
 985              		.cfi_restore_state
 986 002c FFF7FEFF 		bl	__stack_chk_fail
 987              	.LVL91:
 988              	.L87:
 989              		.align	2
 990              	.L86:
 991 0030 00000000 		.word	.LANCHOR4
 992 0034 00000000 		.word	__stack_chk_guard
 993 0038 00000000 		.word	.LANCHOR1
 994              		.cfi_endproc
 995              	.LFE267:
 996              		.size	VL53L0X_stop, .-VL53L0X_stop
 997              		.section	.text.VL53L0X_get_dist_mm,"ax",%progbits
 998              		.align	1
 999              		.p2align 4,,15
 1000              		.global	VL53L0X_get_dist_mm
 1001              		.syntax unified
 1002              		.thumb
 1003              		.thumb_func
 1004              		.fpu fpv4-sp-d16
 1005              		.type	VL53L0X_get_dist_mm, %function
 1006              	VL53L0X_get_dist_mm:
 1007              	.LFB268:
 1008              		.loc 2 246 0
 1009              		.cfi_startproc
 1010              		@ args = 0, pretend = 0, frame = 8
 1011              		@ frame_needed = 0, uses_anonymous_args = 0
 1012 0000 00B5     		push	{lr}
 1013              		.cfi_def_cfa_offset 4
 1014              		.cfi_offset 14, -4
 1015 0002 074B     		ldr	r3, .L92
 1016              		.loc 2 247 0
 1017 0004 0749     		ldr	r1, .L92+4
 1018              		.loc 2 246 0
 1019 0006 1A68     		ldr	r2, [r3]
 1020              		.loc 2 248 0
 1021 0008 0888     		ldrh	r0, [r1]
 1022              		.loc 2 246 0
 1023 000a 83B0     		sub	sp, sp, #12
 1024              		.cfi_def_cfa_offset 16
 1025              		.loc 2 246 0
 1026 000c 0192     		str	r2, [sp, #4]
ARM GAS  C:\Users\Acer\AppData\Local\Temp\ccMQmXt9.s 			page 19


 1027              		.loc 2 248 0
 1028 000e 019A     		ldr	r2, [sp, #4]
 1029 0010 1B68     		ldr	r3, [r3]
 1030 0012 9A42     		cmp	r2, r3
 1031 0014 02D1     		bne	.L91
 1032 0016 03B0     		add	sp, sp, #12
 1033              		.cfi_remember_state
 1034              		.cfi_def_cfa_offset 4
 1035              		@ sp needed
 1036 0018 5DF804FB 		ldr	pc, [sp], #4
 1037              	.L91:
 1038              		.cfi_restore_state
 1039 001c FFF7FEFF 		bl	__stack_chk_fail
 1040              	.LVL92:
 1041              	.L93:
 1042              		.align	2
 1043              	.L92:
 1044 0020 00000000 		.word	__stack_chk_guard
 1045 0024 00000000 		.word	.LANCHOR2
 1046              		.cfi_endproc
 1047              	.LFE268:
 1048              		.size	VL53L0X_get_dist_mm, .-VL53L0X_get_dist_mm
 1049              		.section	.bss.VL53L0X_configured,"aw",%nobits
 1050              		.set	.LANCHOR1,. + 0
 1051              		.type	VL53L0X_configured, %object
 1052              		.size	VL53L0X_configured, 1
 1053              	VL53L0X_configured:
 1054 0000 00       		.space	1
 1055              		.section	.bss.device.11723,"aw",%nobits
 1056              		.align	2
 1057              		.set	.LANCHOR0,. + 0
 1058              		.type	device.11723, %object
 1059              		.size	device.11723, 448
 1060              	device.11723:
 1061 0000 00000000 		.space	448
 1061      00000000 
 1061      00000000 
 1061      00000000 
 1061      00000000 
 1062              		.section	.bss.distThd,"aw",%nobits
 1063              		.align	2
 1064              		.set	.LANCHOR4,. + 0
 1065              		.type	distThd, %object
 1066              		.size	distThd, 4
 1067              	distThd:
 1068 0000 00000000 		.space	4
 1069              		.section	.bss.dist_mm,"aw",%nobits
 1070              		.align	1
 1071              		.set	.LANCHOR2,. + 0
 1072              		.type	dist_mm, %object
 1073              		.size	dist_mm, 2
 1074              	dist_mm:
 1075 0000 0000     		.space	2
 1076              		.section	.bss.waVL53L0XThd,"aw",%nobits
 1077              		.align	3
 1078              		.set	.LANCHOR3,. + 0
 1079              		.type	waVL53L0XThd, %object
ARM GAS  C:\Users\Acer\AppData\Local\Temp\ccMQmXt9.s 			page 20


 1080              		.size	waVL53L0XThd, 888
 1081              	waVL53L0XThd:
 1082 0000 00000000 		.space	888
 1082      00000000 
 1082      00000000 
 1082      00000000 
 1082      00000000 
 1083              		.section	.rodata.VL53L0XThd.str1.4,"aMS",%progbits,1
 1084              		.align	2
 1085              	.LC0:
 1086 0000 564C3533 		.ascii	"VL53L0x Thd\000"
 1086      4C307820 
 1086      54686400 
 1087              	.LC1:
 1088 000c 44495354 		.ascii	"DISTANCE SENSOR\015\012\000"
 1088      414E4345 
 1088      2053454E 
 1088      534F520D 
 1088      0A00
 1089 001e 0000     		.space	2
 1090              	.LC2:
 1091 0020 25640D0A 		.ascii	"%d\015\012\012\000"
 1091      0A00
 1092              		.text
 1093              	.Letext0:
 1094              		.file 5 "c:\\users\\acer\\desktop\\microinformatique-tp\\eclipse_e-puck2\\tools\\gcc-arm-none-eabi
 1095              		.file 6 "c:\\users\\acer\\desktop\\microinformatique-tp\\eclipse_e-puck2\\tools\\gcc-arm-none-eabi
 1096              		.file 7 "c:\\users\\acer\\desktop\\microinformatique-tp\\eclipse_e-puck2\\tools\\gcc-arm-none-eabi
 1097              		.file 8 "c:\\users\\acer\\desktop\\microinformatique-tp\\lib\\e-puck2_main-processor\\chibios\\os\
 1098              		.file 9 "c:\\users\\acer\\desktop\\microinformatique-tp\\lib\\e-puck2_main-processor\\chibios\\os\
 1099              		.file 10 "c:\\users\\acer\\desktop\\microinformatique-tp\\lib\\e-puck2_main-processor\\chibios\\os
 1100              		.file 11 "c:\\users\\acer\\desktop\\microinformatique-tp\\lib\\e-puck2_main-processor\\chibios\\os
 1101              		.file 12 "c:\\users\\acer\\desktop\\microinformatique-tp\\lib\\e-puck2_main-processor\\chibios\\os
 1102              		.file 13 "c:\\users\\acer\\desktop\\microinformatique-tp\\lib\\e-puck2_main-processor\\chibios\\os
 1103              		.file 14 "c:\\users\\acer\\desktop\\microinformatique-tp\\lib\\e-puck2_main-processor\\chibios\\os
 1104              		.file 15 "c:\\users\\acer\\desktop\\microinformatique-tp\\lib\\e-puck2_main-processor\\chibios\\os
 1105              		.file 16 "c:\\users\\acer\\desktop\\microinformatique-tp\\lib\\e-puck2_main-processor\\chibios\\os
 1106              		.file 17 "c:\\users\\acer\\desktop\\microinformatique-tp\\lib\\e-puck2_main-processor\\chibios\\os
 1107              		.file 18 "c:\\users\\acer\\desktop\\microinformatique-tp\\lib\\e-puck2_main-processor\\chibios\\os
 1108              		.file 19 "c:\\users\\acer\\desktop\\microinformatique-tp\\lib\\e-puck2_main-processor\\chibios\\os
 1109              		.file 20 "c:\\users\\acer\\desktop\\microinformatique-tp\\lib\\e-puck2_main-processor\\chibios\\os
 1110              		.file 21 "c:\\users\\acer\\desktop\\microinformatique-tp\\lib\\e-puck2_main-processor\\chibios\\os
 1111              		.file 22 "c:\\users\\acer\\desktop\\microinformatique-tp\\lib\\e-puck2_main-processor\\chibios\\os
 1112              		.file 23 "c:\\users\\acer\\desktop\\microinformatique-tp\\lib\\e-puck2_main-processor\\chibios\\os
 1113              		.file 24 "c:\\users\\acer\\desktop\\microinformatique-tp\\lib\\e-puck2_main-processor\\chibios\\os
 1114              		.file 25 "c:\\users\\acer\\desktop\\microinformatique-tp\\lib\\e-puck2_main-processor\\chibios\\os
 1115              		.file 26 "c:\\users\\acer\\desktop\\microinformatique-tp\\lib\\e-puck2_main-processor\\chibios\\os
 1116              		.file 27 "c:\\users\\acer\\desktop\\microinformatique-tp\\lib\\e-puck2_main-processor\\chibios\\os
 1117              		.file 28 "c:\\users\\acer\\desktop\\microinformatique-tp\\lib\\e-puck2_main-processor\\chibios\\os
 1118              		.file 29 "c:\\users\\acer\\desktop\\microinformatique-tp\\lib\\e-puck2_main-processor\\chibios\\os
 1119              		.file 30 "c:\\users\\acer\\desktop\\microinformatique-tp\\lib\\e-puck2_main-processor\\chibios\\os
 1120              		.file 31 "c:\\users\\acer\\desktop\\microinformatique-tp\\lib\\e-puck2_main-processor\\chibios\\os
 1121              		.file 32 "c:\\users\\acer\\desktop\\microinformatique-tp\\lib\\e-puck2_main-processor\\chibios\\os
 1122              		.file 33 "c:\\users\\acer\\desktop\\microinformatique-tp\\lib\\e-puck2_main-processor\\chibios\\os
 1123              		.file 34 "c:\\users\\acer\\desktop\\microinformatique-tp\\lib\\e-puck2_main-processor\\chibios\\os
 1124              		.file 35 "c:\\users\\acer\\desktop\\microinformatique-tp\\lib\\e-puck2_main-processor\\chibios\\os
 1125              		.file 36 "c:\\users\\acer\\desktop\\microinformatique-tp\\lib\\e-puck2_main-processor\\chibios\\os
ARM GAS  C:\Users\Acer\AppData\Local\Temp\ccMQmXt9.s 			page 21


 1126              		.file 37 "c:\\users\\acer\\desktop\\microinformatique-tp\\lib\\e-puck2_main-processor\\chibios\\os
 1127              		.file 38 "c:\\users\\acer\\desktop\\microinformatique-tp\\lib\\e-puck2_main-processor\\chibios\\os
 1128              		.file 39 "c:\\users\\acer\\desktop\\microinformatique-tp\\lib\\e-puck2_main-processor\\chibios\\os
 1129              		.file 40 "c:\\users\\acer\\desktop\\microinformatique-tp\\lib\\e-puck2_main-processor\\chibios\\os
 1130              		.file 41 "c:\\users\\acer\\desktop\\microinformatique-tp\\lib\\e-puck2_main-processor\\chibios\\os
 1131              		.file 42 "c:\\users\\acer\\desktop\\microinformatique-tp\\lib\\e-puck2_main-processor\\chibios\\os
 1132              		.file 43 "c:\\users\\acer\\desktop\\microinformatique-tp\\lib\\e-puck2_main-processor\\chibios\\os
 1133              		.file 44 "c:\\users\\acer\\desktop\\microinformatique-tp\\lib\\e-puck2_main-processor\\chibios\\os
 1134              		.file 45 "c:\\users\\acer\\desktop\\microinformatique-tp\\lib\\e-puck2_main-processor\\chibios\\os
 1135              		.file 46 "c:\\users\\acer\\desktop\\microinformatique-tp\\lib\\e-puck2_main-processor\\chibios\\os
 1136              		.file 47 "c:\\users\\acer\\desktop\\microinformatique-tp\\lib\\e-puck2_main-processor\\chibios\\os
 1137              		.file 48 "c:\\users\\acer\\desktop\\microinformatique-tp\\lib\\e-puck2_main-processor\\chibios\\os
 1138              		.file 49 "c:\\users\\acer\\desktop\\microinformatique-tp\\lib\\e-puck2_main-processor\\chibios\\os
 1139              		.file 50 "c:\\users\\acer\\desktop\\microinformatique-tp\\lib\\e-puck2_main-processor\\chibios\\os
 1140              		.file 51 "c:\\users\\acer\\desktop\\microinformatique-tp\\lib\\e-puck2_main-processor\\chibios\\os
 1141              		.file 52 "c:\\users\\acer\\desktop\\microinformatique-tp\\lib\\e-puck2_main-processor\\chibios\\os
 1142              		.file 53 "c:\\users\\acer\\desktop\\microinformatique-tp\\lib\\e-puck2_main-processor\\chibios\\os
 1143              		.file 54 "C:\\Users\\Acer\\Desktop\\Microinformatique-TP\\lib\\e-puck2_main-processor/src/sensors/
 1144              		.file 55 "C:\\Users\\Acer\\Desktop\\Microinformatique-TP\\lib\\e-puck2_main-processor/src/sensors/
 1145              		.file 56 "C:\\Users\\Acer\\Desktop\\Microinformatique-TP\\lib\\e-puck2_main-processor/src/sensors/
 1146              		.file 57 "c:\\users\\acer\\desktop\\microinformatique-tp\\eclipse_e-puck2\\tools\\gcc-arm-none-eab
 1147              		.file 58 "<built-in>"
 1148              		.file 59 "c:\\users\\acer\\desktop\\microinformatique-tp\\eclipse_e-puck2\\tools\\gcc-arm-none-eab
 1149              		.file 60 "c:\\users\\acer\\desktop\\microinformatique-tp\\eclipse_e-puck2\\tools\\gcc-arm-none-eab
 1150              		.file 61 "c:\\users\\acer\\desktop\\microinformatique-tp\\eclipse_e-puck2\\tools\\gcc-arm-none-eab
 1151              		.file 62 "c:\\users\\acer\\desktop\\microinformatique-tp\\eclipse_e-puck2\\tools\\gcc-arm-none-eab
 1152              		.file 63 "c:\\users\\acer\\desktop\\microinformatique-tp\\lib\\e-puck2_main-processor\\src\\sensor
 1153              		.file 64 "c:\\users\\acer\\desktop\\microinformatique-tp\\lib\\e-puck2_main-processor\\chibios\\os
 1154              		.file 65 "C:\\Users\\Acer\\Desktop\\Microinformatique-TP\\lib\\e-puck2_main-processor/src/usbcfg.h
 1155              		.file 66 "C:\\Users\\Acer\\Desktop\\Microinformatique-TP\\lib\\e-puck2_main-processor/src/i2c_bus.
 1156              		.file 67 "C:\\Users\\Acer\\Desktop\\Microinformatique-TP\\lib\\e-puck2_main-processor/src/sensors/